
./product/beep.elf:     file format elf32-littlearm


Disassembly of section .text:

87800000 <_start>:
87800000:	e10f0000 	mrs	r0, CPSR
87800004:	e3c0001f 	bic	r0, r0, #31
87800008:	e3800013 	orr	r0, r0, #19
8780000c:	e129f000 	msr	CPSR_fc, r0
87800010:	e51fd000 	ldr	sp, [pc, #-0]	; 87800018 <_start+0x18>
87800014:	ea00006d 	b	878001d0 <__main_from_arm>
87800018:	80200000 	eorhi	r0, r0, r0
8780001c:	00001e41 	andeq	r1, r0, r1, asr #28
87800020:	61656100 	cmnvs	r5, r0, lsl #2
87800024:	01006962 	tsteq	r0, r2, ror #18
87800028:	00000014 	andeq	r0, r0, r4, lsl r0
8780002c:	412d3705 	teqmi	sp, r5, lsl #14
87800030:	070a0600 	streq	r0, [sl, -r0, lsl #12]
87800034:	09010841 	stmdbeq	r1, {r0, r6, fp}
87800038:	00040a02 	andeq	r0, r4, r2, lsl #20

8780003c <Clk_Init>:
8780003c:	f44f 4380 	mov.w	r3, #16384	; 0x4000
87800040:	f04f 32ff 	mov.w	r2, #4294967295	; 0xffffffff
87800044:	f2c0 230c 	movt	r3, #524	; 0x20c
87800048:	669a      	str	r2, [r3, #104]	; 0x68
8780004a:	66da      	str	r2, [r3, #108]	; 0x6c
8780004c:	671a      	str	r2, [r3, #112]	; 0x70
8780004e:	675a      	str	r2, [r3, #116]	; 0x74
87800050:	679a      	str	r2, [r3, #120]	; 0x78
87800052:	67da      	str	r2, [r3, #124]	; 0x7c
87800054:	f8c3 2080 	str.w	r2, [r3, #128]	; 0x80
87800058:	4770      	bx	lr
8780005a:	bf00      	nop

8780005c <Led_Init>:
8780005c:	2268      	movs	r2, #104	; 0x68
8780005e:	f44f 733d 	mov.w	r3, #756	; 0x2f4
87800062:	b570      	push	{r4, r5, r6, lr}
87800064:	f2c0 220e 	movt	r2, #526	; 0x20e
87800068:	b082      	sub	sp, #8
8780006a:	2605      	movs	r6, #5
8780006c:	f2c0 230e 	movt	r3, #526	; 0x20e
87800070:	f241 01b0 	movw	r1, #4272	; 0x10b0
87800074:	6016      	str	r6, [r2, #0]
87800076:	2501      	movs	r5, #1
87800078:	6019      	str	r1, [r3, #0]
8780007a:	2400      	movs	r4, #0
8780007c:	ab02      	add	r3, sp, #8
8780007e:	f44f 4040 	mov.w	r0, #49152	; 0xc000
87800082:	9500      	str	r5, [sp, #0]
87800084:	f2c0 2009 	movt	r0, #521	; 0x209
87800088:	f88d 4004 	strb.w	r4, [sp, #4]
8780008c:	2103      	movs	r1, #3
8780008e:	e913 000c 	ldmdb	r3, {r2, r3}
87800092:	f000 f813 	bl	878000bc <GPIO_Init>
87800096:	b002      	add	sp, #8
87800098:	bd70      	pop	{r4, r5, r6, pc}
8780009a:	bf00      	nop

8780009c <Led_On>:
8780009c:	f44f 4040 	mov.w	r0, #49152	; 0xc000
878000a0:	2200      	movs	r2, #0
878000a2:	f2c0 2009 	movt	r0, #521	; 0x209
878000a6:	2103      	movs	r1, #3
878000a8:	f000 b830 	b.w	8780010c <GPIO_SetValue>

878000ac <Led_Off>:
878000ac:	f44f 4040 	mov.w	r0, #49152	; 0xc000
878000b0:	2201      	movs	r2, #1
878000b2:	f2c0 2009 	movt	r0, #521	; 0x209
878000b6:	2103      	movs	r1, #3
878000b8:	f000 b828 	b.w	8780010c <GPIO_SetValue>

878000bc <GPIO_Init>:
878000bc:	b410      	push	{r4}
878000be:	b083      	sub	sp, #12
878000c0:	ac02      	add	r4, sp, #8
878000c2:	e904 000c 	stmdb	r4, {r2, r3}
878000c6:	9b00      	ldr	r3, [sp, #0]
878000c8:	b173      	cbz	r3, 878000e8 <GPIO_Init+0x2c>
878000ca:	6842      	ldr	r2, [r0, #4]
878000cc:	2301      	movs	r3, #1
878000ce:	f89d 4004 	ldrb.w	r4, [sp, #4]
878000d2:	408b      	lsls	r3, r1
878000d4:	431a      	orrs	r2, r3
878000d6:	6042      	str	r2, [r0, #4]
878000d8:	6802      	ldr	r2, [r0, #0]
878000da:	b17c      	cbz	r4, 878000fc <GPIO_Init+0x40>
878000dc:	4313      	orrs	r3, r2
878000de:	6003      	str	r3, [r0, #0]
878000e0:	b003      	add	sp, #12
878000e2:	f85d 4b04 	ldr.w	r4, [sp], #4
878000e6:	4770      	bx	lr
878000e8:	6842      	ldr	r2, [r0, #4]
878000ea:	2301      	movs	r3, #1
878000ec:	408b      	lsls	r3, r1
878000ee:	ea22 0303 	bic.w	r3, r2, r3
878000f2:	6043      	str	r3, [r0, #4]
878000f4:	b003      	add	sp, #12
878000f6:	f85d 4b04 	ldr.w	r4, [sp], #4
878000fa:	4770      	bx	lr
878000fc:	ea22 0303 	bic.w	r3, r2, r3
87800100:	6003      	str	r3, [r0, #0]
87800102:	b003      	add	sp, #12
87800104:	f85d 4b04 	ldr.w	r4, [sp], #4
87800108:	4770      	bx	lr
8780010a:	bf00      	nop

8780010c <GPIO_SetValue>:
8780010c:	2301      	movs	r3, #1
8780010e:	b122      	cbz	r2, 8780011a <GPIO_SetValue+0xe>
87800110:	6802      	ldr	r2, [r0, #0]
87800112:	408b      	lsls	r3, r1
87800114:	4313      	orrs	r3, r2
87800116:	6003      	str	r3, [r0, #0]
87800118:	4770      	bx	lr
8780011a:	6802      	ldr	r2, [r0, #0]
8780011c:	408b      	lsls	r3, r1
8780011e:	ea22 0303 	bic.w	r3, r2, r3
87800122:	6003      	str	r3, [r0, #0]
87800124:	4770      	bx	lr
87800126:	bf00      	nop

87800128 <GPIO_RedValue>:
87800128:	6800      	ldr	r0, [r0, #0]
8780012a:	40c8      	lsrs	r0, r1
8780012c:	f000 0001 	and.w	r0, r0, #1
87800130:	4770      	bx	lr
87800132:	bf00      	nop

87800134 <Beep_Init>:
87800134:	210c      	movs	r1, #12
87800136:	2250      	movs	r2, #80	; 0x50
87800138:	b570      	push	{r4, r5, r6, lr}
8780013a:	2301      	movs	r3, #1
8780013c:	b082      	sub	sp, #8
8780013e:	f2c0 2129 	movt	r1, #553	; 0x229
87800142:	2605      	movs	r6, #5
87800144:	f2c0 2229 	movt	r2, #553	; 0x229
87800148:	f241 05b0 	movw	r5, #4272	; 0x10b0
8780014c:	600e      	str	r6, [r1, #0]
8780014e:	2400      	movs	r4, #0
87800150:	6015      	str	r5, [r2, #0]
87800152:	4619      	mov	r1, r3
87800154:	9300      	str	r3, [sp, #0]
87800156:	f44f 4040 	mov.w	r0, #49152	; 0xc000
8780015a:	ab02      	add	r3, sp, #8
8780015c:	f88d 4004 	strb.w	r4, [sp, #4]
87800160:	f2c0 200a 	movt	r0, #522	; 0x20a
87800164:	e913 000c 	ldmdb	r3, {r2, r3}
87800168:	f7ff ffa8 	bl	878000bc <GPIO_Init>
8780016c:	b002      	add	sp, #8
8780016e:	bd70      	pop	{r4, r5, r6, pc}

87800170 <Beep_On>:
87800170:	f44f 4040 	mov.w	r0, #49152	; 0xc000
87800174:	2200      	movs	r2, #0
87800176:	f2c0 200a 	movt	r0, #522	; 0x20a
8780017a:	2101      	movs	r1, #1
8780017c:	f7ff bfc6 	b.w	8780010c <GPIO_SetValue>

87800180 <Beep_Off>:
87800180:	2201      	movs	r2, #1
87800182:	f44f 4040 	mov.w	r0, #49152	; 0xc000
87800186:	4611      	mov	r1, r2
87800188:	f2c0 200a 	movt	r0, #522	; 0x20a
8780018c:	f7ff bfbe 	b.w	8780010c <GPIO_SetValue>

87800190 <delay_ms>:
87800190:	b082      	sub	sp, #8
87800192:	9001      	str	r0, [sp, #4]
87800194:	9b01      	ldr	r3, [sp, #4]
87800196:	1e5a      	subs	r2, r3, #1
87800198:	9201      	str	r2, [sp, #4]
8780019a:	2b00      	cmp	r3, #0
8780019c:	d1fa      	bne.n	87800194 <delay_ms+0x4>
8780019e:	b002      	add	sp, #8
878001a0:	4770      	bx	lr
878001a2:	bf00      	nop

878001a4 <Delay>:
878001a4:	b082      	sub	sp, #8
878001a6:	9001      	str	r0, [sp, #4]
878001a8:	9b01      	ldr	r3, [sp, #4]
878001aa:	1e5a      	subs	r2, r3, #1
878001ac:	9201      	str	r2, [sp, #4]
878001ae:	b153      	cbz	r3, 878001c6 <Delay+0x22>
878001b0:	f240 73ff 	movw	r3, #2047	; 0x7ff
878001b4:	461a      	mov	r2, r3
878001b6:	3b01      	subs	r3, #1
878001b8:	2a00      	cmp	r2, #0
878001ba:	d1fb      	bne.n	878001b4 <Delay+0x10>
878001bc:	9b01      	ldr	r3, [sp, #4]
878001be:	1e5a      	subs	r2, r3, #1
878001c0:	9201      	str	r2, [sp, #4]
878001c2:	2b00      	cmp	r3, #0
878001c4:	d1f4      	bne.n	878001b0 <Delay+0xc>
878001c6:	b002      	add	sp, #8
878001c8:	4770      	bx	lr
878001ca:	bf00      	nop
878001cc:	0000      	movs	r0, r0
	...

878001d0 <__main_from_arm>:
878001d0:	e51ff004 	ldr	pc, [pc, #-4]	; 878001d4 <__main_from_arm+0x4>
878001d4:	878001d9 			; <UNDEFINED> instruction: 0x878001d9

Disassembly of section .text.startup:

878001d8 <main>:
878001d8:	b508      	push	{r3, lr}
878001da:	f7ff ff2f 	bl	8780003c <Clk_Init>
878001de:	f7ff ff3d 	bl	8780005c <Led_Init>
878001e2:	f7ff ffa7 	bl	87800134 <Beep_Init>
878001e6:	f44f 70fa 	mov.w	r0, #500	; 0x1f4
878001ea:	f7ff ffdb 	bl	878001a4 <Delay>
878001ee:	f7ff ff55 	bl	8780009c <Led_On>
878001f2:	f7ff ffbd 	bl	87800170 <Beep_On>
878001f6:	f44f 70fa 	mov.w	r0, #500	; 0x1f4
878001fa:	f7ff ffd3 	bl	878001a4 <Delay>
878001fe:	f7ff ff55 	bl	878000ac <Led_Off>
87800202:	f7ff ffbd 	bl	87800180 <Beep_Off>
87800206:	e7ee      	b.n	878001e6 <main+0xe>

Disassembly of section .comment:

00000000 <.comment>:
   0:	3a434347 	bcc	10d0d24 <_start-0x8672f2dc>
   4:	694c2820 	stmdbvs	ip, {r5, fp, sp}^
   8:	6f72616e 	svcvs	0x0072616e
   c:	43434720 	movtmi	r4, #14112	; 0x3720
  10:	392e3420 	stmdbcc	lr!, {r5, sl, ip, sp}
  14:	3130322d 	teqcc	r0, sp, lsr #4
  18:	31302e37 	teqcc	r0, r7, lsr lr
  1c:	2e342029 	cdpcs	0, 3, cr2, cr4, cr9, {1}
  20:	00342e39 	eorseq	r2, r4, r9, lsr lr

Disassembly of section .ARM.attributes:

00000000 <.ARM.attributes>:
   0:	00003041 	andeq	r3, r0, r1, asr #32
   4:	61656100 	cmnvs	r5, r0, lsl #2
   8:	01006962 	tsteq	r0, r2, ror #18
   c:	00000026 	andeq	r0, r0, r6, lsr #32
  10:	412d3705 	teqmi	sp, r5, lsl #14
  14:	070a0600 	streq	r0, [sl, -r0, lsl #12]
  18:	09010841 	stmdbeq	r1, {r0, r6, fp}
  1c:	12040a02 	andne	r0, r4, #8192	; 0x2000
  20:	15011404 	strne	r1, [r1, #-1028]	; 0x404
  24:	18031701 	stmdane	r3, {r0, r8, r9, sl, ip}
  28:	1b021a01 	blne	86834 <_start-0x877797cc>
  2c:	22011c03 	andcs	r1, r1, #768	; 0x300
  30:	Address 0x0000000000000030 is out of bounds.

