
./product/beep.elf:     file format elf32-littlearm


Disassembly of section .text:

87800000 <_start>:
87800000:	e59ff0c4 	ldr	pc, [pc, #196]	; 878000cc <FIQ_Handler+0x8>
87800004:	e59ff0c4 	ldr	pc, [pc, #196]	; 878000d0 <FIQ_Handler+0xc>
87800008:	e59ff0c4 	ldr	pc, [pc, #196]	; 878000d4 <FIQ_Handler+0x10>
8780000c:	e59ff0c4 	ldr	pc, [pc, #196]	; 878000d8 <FIQ_Handler+0x14>
87800010:	e59ff0c4 	ldr	pc, [pc, #196]	; 878000dc <FIQ_Handler+0x18>
87800014:	e59ff0c4 	ldr	pc, [pc, #196]	; 878000e0 <FIQ_Handler+0x1c>
87800018:	e59ff0c4 	ldr	pc, [pc, #196]	; 878000e4 <FIQ_Handler+0x20>
8780001c:	e59ff0c4 	ldr	pc, [pc, #196]	; 878000e8 <FIQ_Handler+0x24>

87800020 <Reset_Handler>:
87800020:	ee110f10 	mrc	15, 0, r0, cr1, cr0, {0}
87800024:	e3c00001 	bic	r0, r0, #1, 0
87800028:	e3c00002 	bic	r0, r0, #2, 0
8780002c:	e3c00b02 	bic	r0, r0, #2048	; 0x800
87800030:	e3c00a01 	bic	r0, r0, #4096	; 0x1000
87800034:	e3c00004 	bic	r0, r0, #4, 0
87800038:	ee010f10 	mcr	15, 0, r0, cr1, cr0, {0}
8780003c:	e59f00a8 	ldr	r0, [pc, #168]	; 878000ec <FIQ_Handler+0x28>
87800040:	f57ff04f 	dsb	sy
87800044:	f57ff06f 	isb	sy
87800048:	ee0c0f10 	mcr	15, 0, r0, cr12, cr0, {0}
8780004c:	f57ff04f 	dsb	sy
87800050:	f57ff06f 	isb	sy
87800054:	e10f0000 	mrs	r0, CPSR
87800058:	e3c0001f 	bic	r0, r0, #31, 0
8780005c:	e3800012 	orr	r0, r0, #18, 0
87800060:	e129f000 	msr	CPSR_fc, r0
87800064:	e59fd084 	ldr	sp, [pc, #132]	; 878000f0 <FIQ_Handler+0x2c>
87800068:	e10f0000 	mrs	r0, CPSR
8780006c:	e3c0001f 	bic	r0, r0, #31, 0
87800070:	e380001f 	orr	r0, r0, #31, 0
87800074:	e129f000 	msr	CPSR_fc, r0
87800078:	e59fd074 	ldr	sp, [pc, #116]	; 878000f4 <FIQ_Handler+0x30>
8780007c:	e10f0000 	mrs	r0, CPSR
87800080:	e3c0001f 	bic	r0, r0, #31, 0
87800084:	e3800013 	orr	r0, r0, #19, 0
87800088:	e129f000 	msr	CPSR_fc, r0
8780008c:	e59fd064 	ldr	sp, [pc, #100]	; 878000f8 <FIQ_Handler+0x34>
87800090:	ea0000e1 	b	8780041c <main>

87800094 <Undefine_Instruction_Handler>:
87800094:	e59f0034 	ldr	r0, [pc, #52]	; 878000d0 <FIQ_Handler+0xc>
87800098:	e12fff10 	bx	r0

8780009c <Software_Interrupt_Handler>:
8780009c:	e59f0030 	ldr	r0, [pc, #48]	; 878000d4 <FIQ_Handler+0x10>
878000a0:	e12fff10 	bx	r0

878000a4 <Prefetch_Abort_Handler>:
878000a4:	e59f002c 	ldr	r0, [pc, #44]	; 878000d8 <FIQ_Handler+0x14>
878000a8:	e12fff10 	bx	r0

878000ac <Data_Abort_Handler>:
878000ac:	e59f0028 	ldr	r0, [pc, #40]	; 878000dc <FIQ_Handler+0x18>
878000b0:	e12fff10 	bx	r0

878000b4 <Not_Used_Handler>:
878000b4:	e59f0024 	ldr	r0, [pc, #36]	; 878000e0 <FIQ_Handler+0x1c>
878000b8:	e12fff10 	bx	r0

878000bc <IRQ_Handler>:
878000bc:	e59f0020 	ldr	r0, [pc, #32]	; 878000e4 <FIQ_Handler+0x20>
878000c0:	e12fff10 	bx	r0

878000c4 <FIQ_Handler>:
878000c4:	e59f001c 	ldr	r0, [pc, #28]	; 878000e8 <FIQ_Handler+0x24>
878000c8:	e12fff10 	bx	r0
878000cc:	87800020 	strhi	r0, [r0, r0, lsr #32]
878000d0:	87800094 			; <UNDEFINED> instruction: 0x87800094
878000d4:	8780009c 			; <UNDEFINED> instruction: 0x8780009c
878000d8:	878000a4 	strhi	r0, [r0, r4, lsr #1]
878000dc:	878000ac 	strhi	r0, [r0, ip, lsr #1]
878000e0:	878000b4 			; <UNDEFINED> instruction: 0x878000b4
878000e4:	878000bc 			; <UNDEFINED> instruction: 0x878000bc
878000e8:	878000c4 	strhi	r0, [r0, r4, asr #1]
878000ec:	87800000 	strhi	r0, [r0, r0]
878000f0:	80600000 	rsbhi	r0, r0, r0
878000f4:	80400000 	subhi	r0, r0, r0
878000f8:	80200000 	eorhi	r0, r0, r0
878000fc:	00002441 	andeq	r2, r0, r1, asr #8
87800100:	61656100 	cmnvs	r5, r0, lsl #2
87800104:	01006962 	tsteq	r0, r2, ror #18
87800108:	0000001a 	andeq	r0, r0, sl, lsl r0
8780010c:	412d3705 			; <UNDEFINED> instruction: 0x412d3705
87800110:	070a0600 	streq	r0, [sl, -r0, lsl #12]
87800114:	09010841 	stmdbeq	r1, {r0, r6, fp}
87800118:	0c050a02 			; <UNDEFINED> instruction: 0x0c050a02
8780011c:	44012a02 	strmi	r2, [r1], #-2562	; 0xfffff5fe
87800120:	00000001 	andeq	r0, r0, r1

87800124 <Clk_Init>:
87800124:	e3a03901 	mov	r3, #16384	; 0x4000
87800128:	e3e02000 	mvn	r2, #0, 0
8780012c:	e340320c 	movt	r3, #524	; 0x20c
87800130:	e5832068 	str	r2, [r3, #104]	; 0x68
87800134:	e583206c 	str	r2, [r3, #108]	; 0x6c
87800138:	e5832070 	str	r2, [r3, #112]	; 0x70
8780013c:	e5832074 	str	r2, [r3, #116]	; 0x74
87800140:	e5832078 	str	r2, [r3, #120]	; 0x78
87800144:	e583207c 	str	r2, [r3, #124]	; 0x7c
87800148:	e5832080 	str	r2, [r3, #128]	; 0x80
8780014c:	e12fff1e 	bx	lr

87800150 <Clk_Freq_Init>:
87800150:	e3a03901 	mov	r3, #16384	; 0x4000
87800154:	e52de004 	push	{lr}		; (str lr, [sp, #-4]!)
87800158:	e340320c 	movt	r3, #524	; 0x20c
8780015c:	e593200c 	ldr	r2, [r3, #12]
87800160:	e3120004 	tst	r2, #4, 0
87800164:	1a000005 	bne	87800180 <Clk_Freq_Init+0x30>
87800168:	e593200c 	ldr	r2, [r3, #12]
8780016c:	e3c22c01 	bic	r2, r2, #256	; 0x100
87800170:	e583200c 	str	r2, [r3, #12]
87800174:	e593200c 	ldr	r2, [r3, #12]
87800178:	e3822004 	orr	r2, r2, #4, 0
8780017c:	e583200c 	str	r2, [r3, #12]
87800180:	e3a01902 	mov	r1, #32768	; 0x8000
87800184:	e3a03901 	mov	r3, #16384	; 0x4000
87800188:	e340320c 	movt	r3, #524	; 0x20c
8780018c:	e340120c 	movt	r1, #524	; 0x20c
87800190:	e302003a 	movw	r0, #8250	; 0x203a
87800194:	e3a02000 	mov	r2, #0, 0
87800198:	e5810000 	str	r0, [r1]
8780019c:	e301c01b 	movw	ip, #4123	; 0x101b
878001a0:	e5832010 	str	r2, [r3, #16]
878001a4:	e342c018 	movt	ip, #8216	; 0x2018
878001a8:	e593e00c 	ldr	lr, [r3, #12]
878001ac:	e301000c 	movw	r0, #4108	; 0x100c
878001b0:	e3410311 	movt	r0, #4881	; 0x1311
878001b4:	e1a02003 	mov	r2, r3
878001b8:	e3cee004 	bic	lr, lr, #4, 0
878001bc:	e583e00c 	str	lr, [r3, #12]
878001c0:	e591e100 	ldr	lr, [r1, #256]	; 0x100
878001c4:	e18ec00c 	orr	ip, lr, ip
878001c8:	e581c100 	str	ip, [r1, #256]	; 0x100
878001cc:	e591c0f0 	ldr	ip, [r1, #240]	; 0xf0
878001d0:	e18c0000 	orr	r0, ip, r0
878001d4:	e58100f0 	str	r0, [r1, #240]	; 0xf0
878001d8:	e5931018 	ldr	r1, [r3, #24]
878001dc:	e3c11703 	bic	r1, r1, #786432	; 0xc0000
878001e0:	e5831018 	str	r1, [r3, #24]
878001e4:	e5931018 	ldr	r1, [r3, #24]
878001e8:	e3811701 	orr	r1, r1, #262144	; 0x40000
878001ec:	e5831018 	str	r1, [r3, #24]
878001f0:	e5931014 	ldr	r1, [r3, #20]
878001f4:	e3c11402 	bic	r1, r1, #33554432	; 0x2000000
878001f8:	e5831014 	str	r1, [r3, #20]
878001fc:	e5923048 	ldr	r3, [r2, #72]	; 0x48
87800200:	e3130020 	tst	r3, #32, 0
87800204:	1afffffc 	bne	878001fc <Clk_Freq_Init+0xac>
87800208:	e5923014 	ldr	r3, [r2, #20]
8780020c:	e3c33c03 	bic	r3, r3, #768	; 0x300
87800210:	e5823014 	str	r3, [r2, #20]
87800214:	e5923014 	ldr	r3, [r2, #20]
87800218:	e3833c01 	orr	r3, r3, #256	; 0x100
8780021c:	e5823014 	str	r3, [r2, #20]
87800220:	e592301c 	ldr	r3, [r2, #28]
87800224:	e3c33040 	bic	r3, r3, #64, 0	; 0x40
87800228:	e582301c 	str	r3, [r2, #28]
8780022c:	e592301c 	ldr	r3, [r2, #28]
87800230:	e3c3303f 	bic	r3, r3, #63, 0	; 0x3f
87800234:	e582301c 	str	r3, [r2, #28]
87800238:	e49df004 	pop	{pc}		; (ldr pc, [sp], #4)

8780023c <Led_Init>:
8780023c:	e3a03000 	mov	r3, #0, 0
87800240:	e52de004 	push	{lr}		; (str lr, [sp, #-4]!)
87800244:	e340320e 	movt	r3, #526	; 0x20e
87800248:	e24dd00c 	sub	sp, sp, #12, 0
8780024c:	e3a0e005 	mov	lr, #5, 0
87800250:	e30110b0 	movw	r1, #4272	; 0x10b0
87800254:	e583e068 	str	lr, [r3, #104]	; 0x68
87800258:	e3a0c001 	mov	ip, #1, 0
8780025c:	e58312f4 	str	r1, [r3, #756]	; 0x2f4
87800260:	e3a02000 	mov	r2, #0, 0
87800264:	e28d3008 	add	r3, sp, #8, 0
87800268:	e3a00903 	mov	r0, #49152	; 0xc000
8780026c:	e58dc000 	str	ip, [sp]
87800270:	e3400209 	movt	r0, #521	; 0x209
87800274:	e5cd2004 	strb	r2, [sp, #4]
87800278:	e3a01003 	mov	r1, #3, 0
8780027c:	e913000c 	ldmdb	r3, {r2, r3}
87800280:	e28dd00c 	add	sp, sp, #12, 0
87800284:	e49de004 	pop	{lr}		; (ldr lr, [sp], #4)
87800288:	ea000009 	b	878002b4 <GPIO_Init>

8780028c <Led_On>:
8780028c:	e3a00903 	mov	r0, #49152	; 0xc000
87800290:	e3a02000 	mov	r2, #0, 0
87800294:	e3400209 	movt	r0, #521	; 0x209
87800298:	e3a01003 	mov	r1, #3, 0
8780029c:	ea00001c 	b	87800314 <GPIO_SetValue>

878002a0 <Led_Off>:
878002a0:	e3a00903 	mov	r0, #49152	; 0xc000
878002a4:	e3a02001 	mov	r2, #1, 0
878002a8:	e3400209 	movt	r0, #521	; 0x209
878002ac:	e3a01003 	mov	r1, #3, 0
878002b0:	ea000017 	b	87800314 <GPIO_SetValue>

878002b4 <GPIO_Init>:
878002b4:	e24dd008 	sub	sp, sp, #8, 0
878002b8:	e28dc008 	add	ip, sp, #8, 0
878002bc:	e90c000c 	stmdb	ip, {r2, r3}
878002c0:	e3a03001 	mov	r3, #1, 0
878002c4:	e59d2000 	ldr	r2, [sp]
878002c8:	e1a01113 	lsl	r1, r3, r1
878002cc:	e3520000 	cmp	r2, #0, 0
878002d0:	1a000004 	bne	878002e8 <GPIO_Init+0x34>
878002d4:	e5903004 	ldr	r3, [r0, #4]
878002d8:	e1c31001 	bic	r1, r3, r1
878002dc:	e5801004 	str	r1, [r0, #4]
878002e0:	e28dd008 	add	sp, sp, #8, 0
878002e4:	e12fff1e 	bx	lr
878002e8:	e5903004 	ldr	r3, [r0, #4]
878002ec:	e5dd2004 	ldrb	r2, [sp, #4]
878002f0:	e1833001 	orr	r3, r3, r1
878002f4:	e5803004 	str	r3, [r0, #4]
878002f8:	e3520000 	cmp	r2, #0, 0
878002fc:	e5903000 	ldr	r3, [r0]
87800300:	01c31001 	biceq	r1, r3, r1
87800304:	11811003 	orrne	r1, r1, r3
87800308:	e5801000 	str	r1, [r0]
8780030c:	e28dd008 	add	sp, sp, #8, 0
87800310:	e12fff1e 	bx	lr

87800314 <GPIO_SetValue>:
87800314:	e3a03001 	mov	r3, #1, 0
87800318:	e3520000 	cmp	r2, #0, 0
8780031c:	e1a01113 	lsl	r1, r3, r1
87800320:	e5903000 	ldr	r3, [r0]
87800324:	01c33001 	biceq	r3, r3, r1
87800328:	11811003 	orrne	r1, r1, r3
8780032c:	05803000 	streq	r3, [r0]
87800330:	15801000 	strne	r1, [r0]
87800334:	e12fff1e 	bx	lr

87800338 <GPIO_RedValue>:
87800338:	e5900000 	ldr	r0, [r0]
8780033c:	e1a00130 	lsr	r0, r0, r1
87800340:	e2000001 	and	r0, r0, #1, 0
87800344:	e12fff1e 	bx	lr

87800348 <Beep_Init>:
87800348:	e3a03000 	mov	r3, #0, 0
8780034c:	e52de004 	push	{lr}		; (str lr, [sp, #-4]!)
87800350:	e3403229 	movt	r3, #553	; 0x229
87800354:	e24dd00c 	sub	sp, sp, #12, 0
87800358:	e3a0e005 	mov	lr, #5, 0
8780035c:	e30110b0 	movw	r1, #4272	; 0x10b0
87800360:	e583e00c 	str	lr, [r3, #12]
87800364:	e3a02001 	mov	r2, #1, 0
87800368:	e5831050 	str	r1, [r3, #80]	; 0x50
8780036c:	e3a0c000 	mov	ip, #0, 0
87800370:	e28d3008 	add	r3, sp, #8, 0
87800374:	e3a00903 	mov	r0, #49152	; 0xc000
87800378:	e1a01002 	mov	r1, r2
8780037c:	e58d2000 	str	r2, [sp]
87800380:	e5cdc004 	strb	ip, [sp, #4]
87800384:	e340020a 	movt	r0, #522	; 0x20a
87800388:	e913000c 	ldmdb	r3, {r2, r3}
8780038c:	e28dd00c 	add	sp, sp, #12, 0
87800390:	e49de004 	pop	{lr}		; (ldr lr, [sp], #4)
87800394:	eaffffc6 	b	878002b4 <GPIO_Init>

87800398 <Beep_On>:
87800398:	e3a00903 	mov	r0, #49152	; 0xc000
8780039c:	e3a02000 	mov	r2, #0, 0
878003a0:	e340020a 	movt	r0, #522	; 0x20a
878003a4:	e3a01001 	mov	r1, #1, 0
878003a8:	eaffffd9 	b	87800314 <GPIO_SetValue>

878003ac <Beep_Off>:
878003ac:	e3a02001 	mov	r2, #1, 0
878003b0:	e3a00903 	mov	r0, #49152	; 0xc000
878003b4:	e1a01002 	mov	r1, r2
878003b8:	e340020a 	movt	r0, #522	; 0x20a
878003bc:	eaffffd4 	b	87800314 <GPIO_SetValue>

878003c0 <delay_ms>:
878003c0:	e24dd008 	sub	sp, sp, #8, 0
878003c4:	e58d0004 	str	r0, [sp, #4]
878003c8:	e59d3004 	ldr	r3, [sp, #4]
878003cc:	e3530000 	cmp	r3, #0, 0
878003d0:	e2433001 	sub	r3, r3, #1, 0
878003d4:	e58d3004 	str	r3, [sp, #4]
878003d8:	1afffffa 	bne	878003c8 <delay_ms+0x8>
878003dc:	e28dd008 	add	sp, sp, #8, 0
878003e0:	e12fff1e 	bx	lr

878003e4 <Delay>:
878003e4:	e24dd008 	sub	sp, sp, #8, 0
878003e8:	e58d0004 	str	r0, [sp, #4]
878003ec:	e59d3004 	ldr	r3, [sp, #4]
878003f0:	e3530000 	cmp	r3, #0, 0
878003f4:	e2433001 	sub	r3, r3, #1, 0
878003f8:	e58d3004 	str	r3, [sp, #4]
878003fc:	0a000004 	beq	87800414 <Delay+0x30>
87800400:	e30027ff 	movw	r2, #2047	; 0x7ff
87800404:	e3520000 	cmp	r2, #0, 0
87800408:	e2422001 	sub	r2, r2, #1, 0
8780040c:	1afffffc 	bne	87800404 <Delay+0x20>
87800410:	eafffff5 	b	878003ec <Delay+0x8>
87800414:	e28dd008 	add	sp, sp, #8, 0
87800418:	e12fff1e 	bx	lr

Disassembly of section .text.startup:

8780041c <main>:
8780041c:	e92d4010 	push	{r4, lr}
87800420:	ebffff4a 	bl	87800150 <Clk_Freq_Init>
87800424:	ebffff3e 	bl	87800124 <Clk_Init>
87800428:	ebffff83 	bl	8780023c <Led_Init>
8780042c:	ebffffc5 	bl	87800348 <Beep_Init>
87800430:	e3a00f7d 	mov	r0, #500	; 0x1f4
87800434:	ebffffea 	bl	878003e4 <Delay>
87800438:	ebffff93 	bl	8780028c <Led_On>
8780043c:	ebffffd5 	bl	87800398 <Beep_On>
87800440:	e3a00f7d 	mov	r0, #500	; 0x1f4
87800444:	ebffffe6 	bl	878003e4 <Delay>
87800448:	ebffff94 	bl	878002a0 <Led_Off>
8780044c:	ebffffd6 	bl	878003ac <Beep_Off>
87800450:	eafffff6 	b	87800430 <main+0x14>

Disassembly of section .comment:

00000000 <.comment>:
   0:	3a434347 	bcc	10d0d24 <_start-0x8672f2dc>
   4:	72632820 	rsbvc	r2, r3, #32, 16	; 0x200000
   8:	7473736f 	ldrbtvc	r7, [r3], #-879	; 0xfffffc91
   c:	2d6c6f6f 	stclcs	15, cr6, [ip, #-444]!	; 0xfffffe44
  10:	3120474e 			; <UNDEFINED> instruction: 0x3120474e
  14:	2e34322e 	cdpcs	2, 3, cr3, cr4, cr14, {1}
  18:	38202930 	stmdacc	r0!, {r4, r5, r8, fp, sp}
  1c:	302e332e 	eorcc	r3, lr, lr, lsr #6
	...

Disassembly of section .ARM.attributes:

00000000 <.ARM.attributes>:
   0:	00003441 	andeq	r3, r0, r1, asr #8
   4:	61656100 	cmnvs	r5, r0, lsl #2
   8:	01006962 	tsteq	r0, r2, ror #18
   c:	0000002a 	andeq	r0, r0, sl, lsr #32
  10:	412d3705 			; <UNDEFINED> instruction: 0x412d3705
  14:	070a0600 	streq	r0, [sl, -r0, lsl #12]
  18:	09010841 	stmdbeq	r1, {r0, r6, fp}
  1c:	0c050a02 			; <UNDEFINED> instruction: 0x0c050a02
  20:	14041202 	strne	r1, [r4], #-514	; 0xfffffdfe
  24:	17011501 	strne	r1, [r1, -r1, lsl #10]
  28:	1a011803 	bne	4603c <_start-0x877b9fc4>
  2c:	22011c02 	andcs	r1, r1, #512	; 0x200
  30:	44012a01 	strmi	r2, [r1], #-2561	; 0xfffff5ff
  34:	Address 0x0000000000000034 is out of bounds.

