
./product/lcd.elf:     file format elf32-littlearm


Disassembly of section .text:

87800000 <_start>:
87800000:	e59ff118 	ldr	pc, [pc, #280]	; 87800120 <FIQ_Handler+0x8>
87800004:	e59ff118 	ldr	pc, [pc, #280]	; 87800124 <FIQ_Handler+0xc>
87800008:	e59ff118 	ldr	pc, [pc, #280]	; 87800128 <FIQ_Handler+0x10>
8780000c:	e59ff118 	ldr	pc, [pc, #280]	; 8780012c <FIQ_Handler+0x14>
87800010:	e59ff118 	ldr	pc, [pc, #280]	; 87800130 <FIQ_Handler+0x18>
87800014:	e59ff118 	ldr	pc, [pc, #280]	; 87800134 <FIQ_Handler+0x1c>
87800018:	e59ff118 	ldr	pc, [pc, #280]	; 87800138 <FIQ_Handler+0x20>
8780001c:	e59ff118 	ldr	pc, [pc, #280]	; 8780013c <FIQ_Handler+0x24>

87800020 <Reset_Handler>:
87800020:	f10c0080 	cpsid	i
87800024:	ee110f10 	mrc	15, 0, r0, cr1, cr0, {0}
87800028:	e3c00001 	bic	r0, r0, #1, 0
8780002c:	e3c00002 	bic	r0, r0, #2, 0
87800030:	e3c00b02 	bic	r0, r0, #2048	; 0x800
87800034:	e3c00a01 	bic	r0, r0, #4096	; 0x1000
87800038:	e3c00004 	bic	r0, r0, #4, 0
8780003c:	ee010f10 	mcr	15, 0, r0, cr1, cr0, {0}
87800040:	e59f00f8 	ldr	r0, [pc, #248]	; 87800140 <FIQ_Handler+0x28>
87800044:	f57ff04f 	dsb	sy
87800048:	f57ff06f 	isb	sy
8780004c:	ee0c0f10 	mcr	15, 0, r0, cr12, cr0, {0}
87800050:	f57ff04f 	dsb	sy
87800054:	f57ff06f 	isb	sy
87800058:	e10f0000 	mrs	r0, CPSR
8780005c:	e3c0001f 	bic	r0, r0, #31, 0
87800060:	e3800012 	orr	r0, r0, #18, 0
87800064:	e129f000 	msr	CPSR_fc, r0
87800068:	e59fd0d4 	ldr	sp, [pc, #212]	; 87800144 <FIQ_Handler+0x2c>
8780006c:	e10f0000 	mrs	r0, CPSR
87800070:	e3c0001f 	bic	r0, r0, #31, 0
87800074:	e380001f 	orr	r0, r0, #31, 0
87800078:	e129f000 	msr	CPSR_fc, r0
8780007c:	e59fd0c4 	ldr	sp, [pc, #196]	; 87800148 <FIQ_Handler+0x30>
87800080:	e10f0000 	mrs	r0, CPSR
87800084:	e3c0001f 	bic	r0, r0, #31, 0
87800088:	e3800013 	orr	r0, r0, #19, 0
8780008c:	e129f000 	msr	CPSR_fc, r0
87800090:	e59fd0b4 	ldr	sp, [pc, #180]	; 8780014c <FIQ_Handler+0x34>
87800094:	f1080080 	cpsie	i
87800098:	ea000f2b 	b	87803d4c <main>

8780009c <Undefine_Instruction_Handler>:
8780009c:	e59f0080 	ldr	r0, [pc, #128]	; 87800124 <FIQ_Handler+0xc>
878000a0:	e12fff10 	bx	r0

878000a4 <Software_Interrupt_Handler>:
878000a4:	e59f007c 	ldr	r0, [pc, #124]	; 87800128 <FIQ_Handler+0x10>
878000a8:	e12fff10 	bx	r0

878000ac <Prefetch_Abort_Handler>:
878000ac:	e59f0078 	ldr	r0, [pc, #120]	; 8780012c <FIQ_Handler+0x14>
878000b0:	e12fff10 	bx	r0

878000b4 <Data_Abort_Handler>:
878000b4:	e59f0074 	ldr	r0, [pc, #116]	; 87800130 <FIQ_Handler+0x18>
878000b8:	e12fff10 	bx	r0

878000bc <Not_Used_Handler>:
878000bc:	e59f0070 	ldr	r0, [pc, #112]	; 87800134 <FIQ_Handler+0x1c>
878000c0:	e12fff10 	bx	r0

878000c4 <IRQ_Handler>:
878000c4:	e52de004 	push	{lr}		; (str lr, [sp, #-4]!)
878000c8:	e92d1fff 	push	{r0, r1, r2, r3, r4, r5, r6, r7, r8, r9, sl, fp, ip}
878000cc:	e14f0000 	mrs	r0, SPSR
878000d0:	e52d0004 	push	{r0}		; (str r0, [sp, #-4]!)
878000d4:	ee9f1f10 	mrc	15, 4, r1, cr15, cr0, {0}
878000d8:	e2811a02 	add	r1, r1, #8192	; 0x2000
878000dc:	e591000c 	ldr	r0, [r1, #12]
878000e0:	e92d0003 	push	{r0, r1}
878000e4:	f1020013 	cps	#19
878000e8:	e52de004 	push	{lr}		; (str lr, [sp, #-4]!)
878000ec:	e59f205c 	ldr	r2, [pc, #92]	; 87800150 <FIQ_Handler+0x38>
878000f0:	e12fff32 	blx	r2
878000f4:	e49de004 	pop	{lr}		; (ldr lr, [sp], #4)
878000f8:	f1020012 	cps	#18
878000fc:	e8bd0003 	pop	{r0, r1}
87800100:	e5810010 	str	r0, [r1, #16]
87800104:	e49d0004 	pop	{r0}		; (ldr r0, [sp], #4)
87800108:	e16ff000 	msr	SPSR_fsxc, r0
8780010c:	e8bd1fff 	pop	{r0, r1, r2, r3, r4, r5, r6, r7, r8, r9, sl, fp, ip}
87800110:	e49de004 	pop	{lr}		; (ldr lr, [sp], #4)
87800114:	e25ef004 	subs	pc, lr, #4, 0

87800118 <FIQ_Handler>:
87800118:	e59f001c 	ldr	r0, [pc, #28]	; 8780013c <FIQ_Handler+0x24>
8780011c:	e12fff10 	bx	r0
87800120:	87800020 	strhi	r0, [r0, r0, lsr #32]
87800124:	8780009c 			; <UNDEFINED> instruction: 0x8780009c
87800128:	878000a4 	strhi	r0, [r0, r4, lsr #1]
8780012c:	878000ac 	strhi	r0, [r0, ip, lsr #1]
87800130:	878000b4 			; <UNDEFINED> instruction: 0x878000b4
87800134:	878000bc 			; <UNDEFINED> instruction: 0x878000bc
87800138:	878000c4 	strhi	r0, [r0, r4, asr #1]
8780013c:	87800118 	usada8hi	r0, r8, r1, r0
87800140:	87800000 	strhi	r0, [r0, r0]
87800144:	80600000 	rsbhi	r0, r0, r0
87800148:	80400000 	subhi	r0, r0, r0
8780014c:	80200000 	eorhi	r0, r0, r0
87800150:	878007d8 			; <UNDEFINED> instruction: 0x878007d8
87800154:	00002441 	andeq	r2, r0, r1, asr #8
87800158:	61656100 	cmnvs	r5, r0, lsl #2
8780015c:	01006962 	tsteq	r0, r2, ror #18
87800160:	0000001a 	andeq	r0, r0, sl, lsl r0
87800164:	412d3705 			; <UNDEFINED> instruction: 0x412d3705
87800168:	070a0600 	streq	r0, [sl, -r0, lsl #12]
8780016c:	09010841 	stmdbeq	r1, {r0, r6, fp}
87800170:	0c050a02 			; <UNDEFINED> instruction: 0x0c050a02
87800174:	44012a02 	strmi	r2, [r1], #-2562	; 0xfffff5fe
87800178:	00000001 	andeq	r0, r0, r1

8780017c <Clk_Init>:
8780017c:	e3a03901 	mov	r3, #16384	; 0x4000
87800180:	e3e02000 	mvn	r2, #0, 0
87800184:	e340320c 	movt	r3, #524	; 0x20c
87800188:	e5832068 	str	r2, [r3, #104]	; 0x68
8780018c:	e583206c 	str	r2, [r3, #108]	; 0x6c
87800190:	e5832070 	str	r2, [r3, #112]	; 0x70
87800194:	e5832074 	str	r2, [r3, #116]	; 0x74
87800198:	e5832078 	str	r2, [r3, #120]	; 0x78
8780019c:	e583207c 	str	r2, [r3, #124]	; 0x7c
878001a0:	e5832080 	str	r2, [r3, #128]	; 0x80
878001a4:	e12fff1e 	bx	lr

878001a8 <Clk_Freq_Init>:
878001a8:	e3a03901 	mov	r3, #16384	; 0x4000
878001ac:	e52de004 	push	{lr}		; (str lr, [sp, #-4]!)
878001b0:	e340320c 	movt	r3, #524	; 0x20c
878001b4:	e593200c 	ldr	r2, [r3, #12]
878001b8:	e3120004 	tst	r2, #4, 0
878001bc:	1a000005 	bne	878001d8 <Clk_Freq_Init+0x30>
878001c0:	e593200c 	ldr	r2, [r3, #12]
878001c4:	e3c22c01 	bic	r2, r2, #256	; 0x100
878001c8:	e583200c 	str	r2, [r3, #12]
878001cc:	e593200c 	ldr	r2, [r3, #12]
878001d0:	e3822004 	orr	r2, r2, #4, 0
878001d4:	e583200c 	str	r2, [r3, #12]
878001d8:	e3a01902 	mov	r1, #32768	; 0x8000
878001dc:	e3a02901 	mov	r2, #16384	; 0x4000
878001e0:	e340220c 	movt	r2, #524	; 0x20c
878001e4:	e340120c 	movt	r1, #524	; 0x20c
878001e8:	e302003a 	movw	r0, #8250	; 0x203a
878001ec:	e3a03000 	mov	r3, #0, 0
878001f0:	e5810000 	str	r0, [r1]
878001f4:	e301c01b 	movw	ip, #4123	; 0x101b
878001f8:	e5823010 	str	r3, [r2, #16]
878001fc:	e342c018 	movt	ip, #8216	; 0x2018
87800200:	e592e00c 	ldr	lr, [r2, #12]
87800204:	e301000c 	movw	r0, #4108	; 0x100c
87800208:	e3410311 	movt	r0, #4881	; 0x1311
8780020c:	e1a03002 	mov	r3, r2
87800210:	e3cee004 	bic	lr, lr, #4, 0
87800214:	e582e00c 	str	lr, [r2, #12]
87800218:	e591e100 	ldr	lr, [r1, #256]	; 0x100
8780021c:	e18ec00c 	orr	ip, lr, ip
87800220:	e581c100 	str	ip, [r1, #256]	; 0x100
87800224:	e591c0f0 	ldr	ip, [r1, #240]	; 0xf0
87800228:	e18c0000 	orr	r0, ip, r0
8780022c:	e58100f0 	str	r0, [r1, #240]	; 0xf0
87800230:	e5921018 	ldr	r1, [r2, #24]
87800234:	e3c11703 	bic	r1, r1, #786432	; 0xc0000
87800238:	e5821018 	str	r1, [r2, #24]
8780023c:	e5921018 	ldr	r1, [r2, #24]
87800240:	e3811701 	orr	r1, r1, #262144	; 0x40000
87800244:	e5821018 	str	r1, [r2, #24]
87800248:	e5921014 	ldr	r1, [r2, #20]
8780024c:	e3c11402 	bic	r1, r1, #33554432	; 0x2000000
87800250:	e5821014 	str	r1, [r2, #20]
87800254:	e5932048 	ldr	r2, [r3, #72]	; 0x48
87800258:	e3120020 	tst	r2, #32, 0
8780025c:	1afffffc 	bne	87800254 <Clk_Freq_Init+0xac>
87800260:	e5932014 	ldr	r2, [r3, #20]
87800264:	e3c22c03 	bic	r2, r2, #768	; 0x300
87800268:	e5832014 	str	r2, [r3, #20]
8780026c:	e5932014 	ldr	r2, [r3, #20]
87800270:	e3822c01 	orr	r2, r2, #256	; 0x100
87800274:	e5832014 	str	r2, [r3, #20]
87800278:	e593201c 	ldr	r2, [r3, #28]
8780027c:	e3c22040 	bic	r2, r2, #64, 0	; 0x40
87800280:	e583201c 	str	r2, [r3, #28]
87800284:	e593201c 	ldr	r2, [r3, #28]
87800288:	e3c2203f 	bic	r2, r2, #63, 0	; 0x3f
8780028c:	e583201c 	str	r2, [r3, #28]
87800290:	e5932024 	ldr	r2, [r3, #36]	; 0x24
87800294:	e3c22040 	bic	r2, r2, #64, 0	; 0x40
87800298:	e5832024 	str	r2, [r3, #36]	; 0x24
8780029c:	e5932024 	ldr	r2, [r3, #36]	; 0x24
878002a0:	e3c2203f 	bic	r2, r2, #63, 0	; 0x3f
878002a4:	e5832024 	str	r2, [r3, #36]	; 0x24
878002a8:	e49df004 	pop	{pc}		; (ldr pc, [sp], #4)

878002ac <Clk_Uart_Init>:
878002ac:	e3a03901 	mov	r3, #16384	; 0x4000
878002b0:	e340320c 	movt	r3, #524	; 0x20c
878002b4:	e5932024 	ldr	r2, [r3, #36]	; 0x24
878002b8:	e3c22040 	bic	r2, r2, #64, 0	; 0x40
878002bc:	e5832024 	str	r2, [r3, #36]	; 0x24
878002c0:	e5932024 	ldr	r2, [r3, #36]	; 0x24
878002c4:	e3c2203f 	bic	r2, r2, #63, 0	; 0x3f
878002c8:	e5832024 	str	r2, [r3, #36]	; 0x24
878002cc:	e12fff1e 	bx	lr

878002d0 <Clk_LCD_Init>:
878002d0:	e3a03902 	mov	r3, #32768	; 0x8000
878002d4:	e52de004 	push	{lr}		; (str lr, [sp, #-4]!)
878002d8:	e340320c 	movt	r3, #524	; 0x20c
878002dc:	e3a0c000 	mov	ip, #0, 0
878002e0:	e3a0e001 	mov	lr, #1, 0
878002e4:	e2411001 	sub	r1, r1, #1, 0
878002e8:	e583c0b0 	str	ip, [r3, #176]	; 0xb0
878002ec:	e3a0c901 	mov	ip, #16384	; 0x4000
878002f0:	e583e0c0 	str	lr, [r3, #192]	; 0xc0
878002f4:	e340c20c 	movt	ip, #524	; 0x20c
878002f8:	e593e0a0 	ldr	lr, [r3, #160]	; 0xa0
878002fc:	e2422001 	sub	r2, r2, #1, 0
87800300:	e38eea02 	orr	lr, lr, #8192	; 0x2000
87800304:	e583e0a0 	str	lr, [r3, #160]	; 0xa0
87800308:	e593e0a0 	ldr	lr, [r3, #160]	; 0xa0
8780030c:	e3cee706 	bic	lr, lr, #1572864	; 0x180000
87800310:	e583e0a0 	str	lr, [r3, #160]	; 0xa0
87800314:	e593e0a0 	ldr	lr, [r3, #160]	; 0xa0
87800318:	e38ee601 	orr	lr, lr, #1048576	; 0x100000
8780031c:	e583e0a0 	str	lr, [r3, #160]	; 0xa0
87800320:	e593e170 	ldr	lr, [r3, #368]	; 0x170
87800324:	e3cee103 	bic	lr, lr, #-1073741824	; 0xc0000000
87800328:	e583e170 	str	lr, [r3, #368]	; 0x170
8780032c:	e593e170 	ldr	lr, [r3, #368]	; 0x170
87800330:	e38ee102 	orr	lr, lr, #-2147483648	; 0x80000000
87800334:	e583e170 	str	lr, [r3, #368]	; 0x170
87800338:	e59ce038 	ldr	lr, [ip, #56]	; 0x38
8780033c:	e3cee90e 	bic	lr, lr, #229376	; 0x38000
87800340:	e58ce038 	str	lr, [ip, #56]	; 0x38
87800344:	e59ce038 	ldr	lr, [ip, #56]	; 0x38
87800348:	e38ee801 	orr	lr, lr, #65536	; 0x10000
8780034c:	e58ce038 	str	lr, [ip, #56]	; 0x38
87800350:	e593e0a0 	ldr	lr, [r3, #160]	; 0xa0
87800354:	e3cee03f 	bic	lr, lr, #63, 0	; 0x3f
87800358:	e583e0a0 	str	lr, [r3, #160]	; 0xa0
8780035c:	e593e0a0 	ldr	lr, [r3, #160]	; 0xa0
87800360:	e180000e 	orr	r0, r0, lr
87800364:	e58300a0 	str	r0, [r3, #160]	; 0xa0
87800368:	e59c0038 	ldr	r0, [ip, #56]	; 0x38
8780036c:	e3c00a07 	bic	r0, r0, #28672	; 0x7000
87800370:	e58c0038 	str	r0, [ip, #56]	; 0x38
87800374:	e59c0038 	ldr	r0, [ip, #56]	; 0x38
87800378:	e1800601 	orr	r0, r0, r1, lsl #12
8780037c:	e58c0038 	str	r0, [ip, #56]	; 0x38
87800380:	e59c1018 	ldr	r1, [ip, #24]
87800384:	e3c1150e 	bic	r1, r1, #58720256	; 0x3800000
87800388:	e58c1018 	str	r1, [ip, #24]
8780038c:	e59c3018 	ldr	r3, [ip, #24]
87800390:	e1833b82 	orr	r3, r3, r2, lsl #23
87800394:	e58c3018 	str	r3, [ip, #24]
87800398:	e59c3038 	ldr	r3, [ip, #56]	; 0x38
8780039c:	e3c33c0e 	bic	r3, r3, #3584	; 0xe00
878003a0:	e58c3038 	str	r3, [ip, #56]	; 0x38
878003a4:	e49df004 	pop	{pc}		; (ldr pc, [sp], #4)

878003a8 <Led_Init>:
878003a8:	e3033d7c 	movw	r3, #15740	; 0x3d7c
878003ac:	e92d4010 	push	{r4, lr}
878003b0:	e3483780 	movt	r3, #34688	; 0x8780
878003b4:	e24dd018 	sub	sp, sp, #24, 0
878003b8:	e3a0c000 	mov	ip, #0, 0
878003bc:	e301e0b0 	movw	lr, #4272	; 0x10b0
878003c0:	e8930007 	ldm	r3, {r0, r1, r2}
878003c4:	e340c20e 	movt	ip, #526	; 0x20e
878003c8:	e28d300c 	add	r3, sp, #12, 0
878003cc:	e3a04005 	mov	r4, #5, 0
878003d0:	e58c4068 	str	r4, [ip, #104]	; 0x68
878003d4:	e58ce2f4 	str	lr, [ip, #756]	; 0x2f4
878003d8:	e8830007 	stm	r3, {r0, r1, r2}
878003dc:	e3a00903 	mov	r0, #49152	; 0xc000
878003e0:	e59dc014 	ldr	ip, [sp, #20]
878003e4:	e3400209 	movt	r0, #521	; 0x209
878003e8:	e3a01003 	mov	r1, #3, 0
878003ec:	e893000c 	ldm	r3, {r2, r3}
878003f0:	e58dc000 	str	ip, [sp]
878003f4:	eb00007a 	bl	878005e4 <GPIO_Init>
878003f8:	e28dd018 	add	sp, sp, #24, 0
878003fc:	e8bd8010 	pop	{r4, pc}

87800400 <Led_On>:
87800400:	e3a00903 	mov	r0, #49152	; 0xc000
87800404:	e3a02000 	mov	r2, #0, 0
87800408:	e3400209 	movt	r0, #521	; 0x209
8780040c:	e3a01003 	mov	r1, #3, 0
87800410:	ea00001b 	b	87800484 <GPIO_SetValue>

87800414 <Led_Off>:
87800414:	e3a00903 	mov	r0, #49152	; 0xc000
87800418:	e3a02001 	mov	r2, #1, 0
8780041c:	e3400209 	movt	r0, #521	; 0x209
87800420:	e3a01003 	mov	r1, #3, 0
87800424:	ea000016 	b	87800484 <GPIO_SetValue>

87800428 <Led_Toggle>:
87800428:	e3a00903 	mov	r0, #49152	; 0xc000
8780042c:	e92d4010 	push	{r4, lr}
87800430:	e3a01003 	mov	r1, #3, 0
87800434:	e3400209 	movt	r0, #521	; 0x209
87800438:	eb00001a 	bl	878004a8 <GPIO_ReadValue>
8780043c:	e3500000 	cmp	r0, #0, 0
87800440:	e3a00903 	mov	r0, #49152	; 0xc000
87800444:	1a000004 	bne	8780045c <Led_Toggle+0x34>
87800448:	e3a02001 	mov	r2, #1, 0
8780044c:	e3400209 	movt	r0, #521	; 0x209
87800450:	e3a01003 	mov	r1, #3, 0
87800454:	e8bd4010 	pop	{r4, lr}
87800458:	ea000009 	b	87800484 <GPIO_SetValue>
8780045c:	e3a02000 	mov	r2, #0, 0
87800460:	e3400209 	movt	r0, #521	; 0x209
87800464:	e3a01003 	mov	r1, #3, 0
87800468:	e8bd4010 	pop	{r4, lr}
8780046c:	ea000004 	b	87800484 <GPIO_SetValue>

87800470 <Led_Set>:
87800470:	e1a02000 	mov	r2, r0
87800474:	e3a00903 	mov	r0, #49152	; 0xc000
87800478:	e3400209 	movt	r0, #521	; 0x209
8780047c:	e3a01003 	mov	r1, #3, 0
87800480:	eaffffff 	b	87800484 <GPIO_SetValue>

87800484 <GPIO_SetValue>:
87800484:	e3a03001 	mov	r3, #1, 0
87800488:	e3520000 	cmp	r2, #0, 0
8780048c:	e1a01113 	lsl	r1, r3, r1
87800490:	e5903000 	ldr	r3, [r0]
87800494:	01c33001 	biceq	r3, r3, r1
87800498:	11811003 	orrne	r1, r1, r3
8780049c:	05803000 	streq	r3, [r0]
878004a0:	15801000 	strne	r1, [r0]
878004a4:	e12fff1e 	bx	lr

878004a8 <GPIO_ReadValue>:
878004a8:	e5900000 	ldr	r0, [r0]
878004ac:	e1a00130 	lsr	r0, r0, r1
878004b0:	e2000001 	and	r0, r0, #1, 0
878004b4:	e12fff1e 	bx	lr

878004b8 <GPIO_Enable_Interrupt>:
878004b8:	e5903014 	ldr	r3, [r0, #20]
878004bc:	e3a02001 	mov	r2, #1, 0
878004c0:	e1831112 	orr	r1, r3, r2, lsl r1
878004c4:	e5801014 	str	r1, [r0, #20]
878004c8:	e12fff1e 	bx	lr

878004cc <GPIO_Disable_Interrupt>:
878004cc:	e5903014 	ldr	r3, [r0, #20]
878004d0:	e3a02001 	mov	r2, #1, 0
878004d4:	e1c31112 	bic	r1, r3, r2, lsl r1
878004d8:	e5801014 	str	r1, [r0, #20]
878004dc:	e12fff1e 	bx	lr

878004e0 <GPIO_Clean_Interrupt_Flag>:
878004e0:	e5903018 	ldr	r3, [r0, #24]
878004e4:	e3a02001 	mov	r2, #1, 0
878004e8:	e1831112 	orr	r1, r3, r2, lsl r1
878004ec:	e5801018 	str	r1, [r0, #24]
878004f0:	e12fff1e 	bx	lr

878004f4 <GPIO_Init_Interrupt>:
878004f4:	e590c01c 	ldr	ip, [r0, #28]
878004f8:	e3a03001 	mov	r3, #1, 0
878004fc:	e1a03113 	lsl	r3, r3, r1
87800500:	e351000f 	cmp	r1, #15, 0
87800504:	e2422001 	sub	r2, r2, #1, 0
87800508:	e1ccc003 	bic	ip, ip, r3
8780050c:	c2411010 	subgt	r1, r1, #16, 0
87800510:	e580c01c 	str	ip, [r0, #28]
87800514:	d280c00c 	addle	ip, r0, #12, 0
87800518:	c280c010 	addgt	ip, r0, #16, 0
8780051c:	e3520004 	cmp	r2, #4, 0
87800520:	979ff102 	ldrls	pc, [pc, r2, lsl #2]
87800524:	ea000004 	b	8780053c <GPIO_Init_Interrupt+0x48>
87800528:	87800590 			; <UNDEFINED> instruction: 0x87800590
8780052c:	878005a8 	strhi	r0, [r0, r8, lsr #11]
87800530:	878005d0 			; <UNDEFINED> instruction: 0x878005d0
87800534:	87800540 	strhi	r0, [r0, r0, asr #10]
87800538:	87800568 	strhi	r0, [r0, r8, ror #10]
8780053c:	e12fff1e 	bx	lr
87800540:	e1a01081 	lsl	r1, r1, #1
87800544:	e59c2000 	ldr	r2, [ip]
87800548:	e3a03003 	mov	r3, #3, 0
8780054c:	e1a01113 	lsl	r1, r3, r1
87800550:	e1c23001 	bic	r3, r2, r1
87800554:	e58c3000 	str	r3, [ip]
87800558:	e59c3000 	ldr	r3, [ip]
8780055c:	e1811003 	orr	r1, r1, r3
87800560:	e58c1000 	str	r1, [ip]
87800564:	e12fff1e 	bx	lr
87800568:	e59c2000 	ldr	r2, [ip]
8780056c:	e1a01081 	lsl	r1, r1, #1
87800570:	e52de004 	push	{lr}		; (str lr, [sp, #-4]!)
87800574:	e3a0e003 	mov	lr, #3, 0
87800578:	e1c2111e 	bic	r1, r2, lr, lsl r1
8780057c:	e58c1000 	str	r1, [ip]
87800580:	e590201c 	ldr	r2, [r0, #28]
87800584:	e1833002 	orr	r3, r3, r2
87800588:	e580301c 	str	r3, [r0, #28]
8780058c:	e49df004 	pop	{pc}		; (ldr pc, [sp], #4)
87800590:	e59c3000 	ldr	r3, [ip]
87800594:	e1a01081 	lsl	r1, r1, #1
87800598:	e3a02003 	mov	r2, #3, 0
8780059c:	e1c31112 	bic	r1, r3, r2, lsl r1
878005a0:	e58c1000 	str	r1, [ip]
878005a4:	e12fff1e 	bx	lr
878005a8:	e59c3000 	ldr	r3, [ip]
878005ac:	e1a01081 	lsl	r1, r1, #1
878005b0:	e3a00003 	mov	r0, #3, 0
878005b4:	e3a02001 	mov	r2, #1, 0
878005b8:	e1c33110 	bic	r3, r3, r0, lsl r1
878005bc:	e58c3000 	str	r3, [ip]
878005c0:	e59c3000 	ldr	r3, [ip]
878005c4:	e1831112 	orr	r1, r3, r2, lsl r1
878005c8:	e58c1000 	str	r1, [ip]
878005cc:	e12fff1e 	bx	lr
878005d0:	e59c3000 	ldr	r3, [ip]
878005d4:	e1a01081 	lsl	r1, r1, #1
878005d8:	e3a00003 	mov	r0, #3, 0
878005dc:	e3a02002 	mov	r2, #2, 0
878005e0:	eafffff4 	b	878005b8 <GPIO_Init_Interrupt+0xc4>

878005e4 <GPIO_Init>:
878005e4:	e24dd008 	sub	sp, sp, #8, 0
878005e8:	e24dc004 	sub	ip, sp, #4, 0
878005ec:	e98c000c 	stmib	ip, {r2, r3}
878005f0:	e3a03001 	mov	r3, #1, 0
878005f4:	e59d2000 	ldr	r2, [sp]
878005f8:	e1a03113 	lsl	r3, r3, r1
878005fc:	e3520000 	cmp	r2, #0, 0
87800600:	1a000005 	bne	8780061c <GPIO_Init+0x38>
87800604:	e5902004 	ldr	r2, [r0, #4]
87800608:	e1c23003 	bic	r3, r2, r3
8780060c:	e59d2008 	ldr	r2, [sp, #8]
87800610:	e5803004 	str	r3, [r0, #4]
87800614:	e28dd008 	add	sp, sp, #8, 0
87800618:	eaffffb5 	b	878004f4 <GPIO_Init_Interrupt>
8780061c:	e5902004 	ldr	r2, [r0, #4]
87800620:	e5ddc004 	ldrb	ip, [sp, #4]
87800624:	e1822003 	orr	r2, r2, r3
87800628:	e5802004 	str	r2, [r0, #4]
8780062c:	e35c0000 	cmp	ip, #0, 0
87800630:	e5902000 	ldr	r2, [r0]
87800634:	01c23003 	biceq	r3, r2, r3
87800638:	11833002 	orrne	r3, r3, r2
8780063c:	e5803000 	str	r3, [r0]
87800640:	e59d2008 	ldr	r2, [sp, #8]
87800644:	e28dd008 	add	sp, sp, #8, 0
87800648:	eaffffa9 	b	878004f4 <GPIO_Init_Interrupt>

8780064c <Beep_Init>:
8780064c:	e3033d88 	movw	r3, #15752	; 0x3d88
87800650:	e92d4010 	push	{r4, lr}
87800654:	e3483780 	movt	r3, #34688	; 0x8780
87800658:	e24dd018 	sub	sp, sp, #24, 0
8780065c:	e3a0c000 	mov	ip, #0, 0
87800660:	e301e0b0 	movw	lr, #4272	; 0x10b0
87800664:	e8930007 	ldm	r3, {r0, r1, r2}
87800668:	e340c229 	movt	ip, #553	; 0x229
8780066c:	e28d300c 	add	r3, sp, #12, 0
87800670:	e3a04005 	mov	r4, #5, 0
87800674:	e58c400c 	str	r4, [ip, #12]
87800678:	e58ce050 	str	lr, [ip, #80]	; 0x50
8780067c:	e8830007 	stm	r3, {r0, r1, r2}
87800680:	e3a00903 	mov	r0, #49152	; 0xc000
87800684:	e59dc014 	ldr	ip, [sp, #20]
87800688:	e340020a 	movt	r0, #522	; 0x20a
8780068c:	e3a01001 	mov	r1, #1, 0
87800690:	e893000c 	ldm	r3, {r2, r3}
87800694:	e58dc000 	str	ip, [sp]
87800698:	ebffffd1 	bl	878005e4 <GPIO_Init>
8780069c:	e28dd018 	add	sp, sp, #24, 0
878006a0:	e8bd8010 	pop	{r4, pc}

878006a4 <Beep_On>:
878006a4:	e3a00903 	mov	r0, #49152	; 0xc000
878006a8:	e3a02000 	mov	r2, #0, 0
878006ac:	e340020a 	movt	r0, #522	; 0x20a
878006b0:	e3a01001 	mov	r1, #1, 0
878006b4:	eaffff72 	b	87800484 <GPIO_SetValue>

878006b8 <Beep_Off>:
878006b8:	e3a02001 	mov	r2, #1, 0
878006bc:	e3a00903 	mov	r0, #49152	; 0xc000
878006c0:	e1a01002 	mov	r1, r2
878006c4:	e340020a 	movt	r0, #522	; 0x20a
878006c8:	eaffff6d 	b	87800484 <GPIO_SetValue>

878006cc <Beep_Toggle>:
878006cc:	e3a00903 	mov	r0, #49152	; 0xc000
878006d0:	e92d4010 	push	{r4, lr}
878006d4:	e3a01001 	mov	r1, #1, 0
878006d8:	e340020a 	movt	r0, #522	; 0x20a
878006dc:	ebffff71 	bl	878004a8 <GPIO_ReadValue>
878006e0:	e3500000 	cmp	r0, #0, 0
878006e4:	1a000005 	bne	87800700 <Beep_Toggle+0x34>
878006e8:	e3a02001 	mov	r2, #1, 0
878006ec:	e3a00903 	mov	r0, #49152	; 0xc000
878006f0:	e1a01002 	mov	r1, r2
878006f4:	e340020a 	movt	r0, #522	; 0x20a
878006f8:	e8bd4010 	pop	{r4, lr}
878006fc:	eaffff60 	b	87800484 <GPIO_SetValue>
87800700:	e3a00903 	mov	r0, #49152	; 0xc000
87800704:	e3a02000 	mov	r2, #0, 0
87800708:	e340020a 	movt	r0, #522	; 0x20a
8780070c:	e3a01001 	mov	r1, #1, 0
87800710:	e8bd4010 	pop	{r4, lr}
87800714:	eaffff5a 	b	87800484 <GPIO_SetValue>

87800718 <Beep_Set>:
87800718:	e1a02000 	mov	r2, r0
8780071c:	e3a00903 	mov	r0, #49152	; 0xc000
87800720:	e340020a 	movt	r0, #522	; 0x20a
87800724:	e3a01001 	mov	r1, #1, 0
87800728:	eaffff55 	b	87800484 <GPIO_SetValue>

8780072c <Interrupt_Default_Irq_Handler>:
8780072c:	eafffffe 	b	8780072c <Interrupt_Default_Irq_Handler>

87800730 <Init_Interrupt>:
87800730:	e3033f10 	movw	r3, #16144	; 0x3f10
87800734:	e3a02000 	mov	r2, #0, 0
87800738:	e3483780 	movt	r3, #34688	; 0x8780
8780073c:	e300172c 	movw	r1, #1836	; 0x72c
87800740:	e52de004 	push	{lr}		; (str lr, [sp, #-4]!)
87800744:	e3481780 	movt	r1, #34688	; 0x8780
87800748:	e4832004 	str	r2, [r3], #4
8780074c:	e2830c05 	add	r0, r3, #1280	; 0x500
87800750:	e8830006 	stm	r3, {r1, r2}
87800754:	e2833008 	add	r3, r3, #8, 0
87800758:	e1500003 	cmp	r0, r3
8780075c:	1afffffb 	bne	87800750 <Init_Interrupt+0x20>
87800760:	ee9f2f10 	mrc	15, 4, r2, cr15, cr0, {0}
87800764:	e1a02822 	lsr	r2, r2, #16
87800768:	e3a03000 	mov	r3, #0, 0
8780076c:	e3e0c000 	mvn	ip, #0, 0
87800770:	e1a02802 	lsl	r2, r2, #16
87800774:	e282ea01 	add	lr, r2, #4096	; 0x1000
87800778:	e59e0004 	ldr	r0, [lr, #4]
8780077c:	e200001f 	and	r0, r0, #31, 0
87800780:	e1500003 	cmp	r0, r3
87800784:	e2831e46 	add	r1, r3, #1120	; 0x460
87800788:	e782c101 	str	ip, [r2, r1, lsl #2]
8780078c:	e2833001 	add	r3, r3, #1, 0
87800790:	1afffffa 	bne	87800780 <Init_Interrupt+0x50>
87800794:	e2822a02 	add	r2, r2, #8192	; 0x2000
87800798:	e3a01001 	mov	r1, #1, 0
8780079c:	e3a0c0f8 	mov	ip, #248, 0	; 0xf8
878007a0:	e3a00002 	mov	r0, #2, 0
878007a4:	e3a03000 	mov	r3, #0, 0
878007a8:	e582c004 	str	ip, [r2, #4]
878007ac:	e3483780 	movt	r3, #34688	; 0x8780
878007b0:	e5820008 	str	r0, [r2, #8]
878007b4:	e58e1000 	str	r1, [lr]
878007b8:	e5821000 	str	r1, [r2]
878007bc:	ee0c3f10 	mcr	15, 0, r3, cr12, cr0, {0}
878007c0:	e49df004 	pop	{pc}		; (ldr pc, [sp], #4)

878007c4 <Interrupt_Irq_Handler_Register>:
878007c4:	e3033f10 	movw	r3, #16144	; 0x3f10
878007c8:	e3483780 	movt	r3, #34688	; 0x8780
878007cc:	e0830180 	add	r0, r3, r0, lsl #3
878007d0:	e9800006 	stmib	r0, {r1, r2}
878007d4:	e12fff1e 	bx	lr

878007d8 <system_irq_handler>:
878007d8:	e7e93050 	ubfx	r3, r0, #0, #10
878007dc:	e353009f 	cmp	r3, #159, 0	; 0x9f
878007e0:	812fff1e 	bxhi	lr
878007e4:	e92d4010 	push	{r4, lr}
878007e8:	e3034f10 	movw	r4, #16144	; 0x3f10
878007ec:	e3484780 	movt	r4, #34688	; 0x8780
878007f0:	e1a00003 	mov	r0, r3
878007f4:	e1a02004 	mov	r2, r4
878007f8:	e5941000 	ldr	r1, [r4]
878007fc:	e2811001 	add	r1, r1, #1, 0
87800800:	e4821004 	str	r1, [r2], #4
87800804:	e0821183 	add	r1, r2, r3, lsl #3
87800808:	e7923183 	ldr	r3, [r2, r3, lsl #3]
8780080c:	e5911004 	ldr	r1, [r1, #4]
87800810:	e12fff33 	blx	r3
87800814:	e5943000 	ldr	r3, [r4]
87800818:	e2433001 	sub	r3, r3, #1, 0
8780081c:	e5843000 	str	r3, [r4]
87800820:	e8bd8010 	pop	{r4, pc}

87800824 <Key0_Epit1_Interrupt_Irq_Handler>:
87800824:	e3a00903 	mov	r0, #49152	; 0xc000
87800828:	e92d4010 	push	{r4, lr}
8780082c:	e3a01012 	mov	r1, #18, 0
87800830:	e3400209 	movt	r0, #521	; 0x209
87800834:	ebffff1b 	bl	878004a8 <GPIO_ReadValue>
87800838:	e3500000 	cmp	r0, #0, 0
8780083c:	0a000008 	beq	87800864 <Key0_Epit1_Interrupt_Irq_Handler+0x40>
87800840:	e3a03000 	mov	r3, #0, 0
87800844:	e340320d 	movt	r3, #525	; 0x20d
87800848:	e5932000 	ldr	r2, [r3]
8780084c:	e3c22001 	bic	r2, r2, #1, 0
87800850:	e5832000 	str	r2, [r3]
87800854:	e5932004 	ldr	r2, [r3, #4]
87800858:	e3822001 	orr	r2, r2, #1, 0
8780085c:	e5832004 	str	r2, [r3, #4]
87800860:	e8bd8010 	pop	{r4, pc}
87800864:	e3034e08 	movw	r4, #15880	; 0x3e08
87800868:	e3484780 	movt	r4, #34688	; 0x8780
8780086c:	e5d40000 	ldrb	r0, [r4]
87800870:	ebffffa8 	bl	87800718 <Beep_Set>
87800874:	e5d40000 	ldrb	r0, [r4]
87800878:	ebfffefc 	bl	87800470 <Led_Set>
8780087c:	e5943000 	ldr	r3, [r4]
87800880:	e16f3f13 	clz	r3, r3
87800884:	e1a032a3 	lsr	r3, r3, #5
87800888:	e5843000 	str	r3, [r4]
8780088c:	eaffffeb 	b	87800840 <Key0_Epit1_Interrupt_Irq_Handler+0x1c>

87800890 <Key0_Interrupt_Irq_Handler>:
87800890:	e3a03000 	mov	r3, #0, 0
87800894:	e52de004 	push	{lr}		; (str lr, [sp, #-4]!)
87800898:	e1a0e003 	mov	lr, r3
8780089c:	e340320d 	movt	r3, #525	; 0x20d
878008a0:	e302c710 	movw	ip, #10000	; 0x2710
878008a4:	e3a00903 	mov	r0, #49152	; 0xc000
878008a8:	e5932000 	ldr	r2, [r3]
878008ac:	e3400209 	movt	r0, #521	; 0x209
878008b0:	e3a01012 	mov	r1, #18, 0
878008b4:	e3c22001 	bic	r2, r2, #1, 0
878008b8:	e5832000 	str	r2, [r3]
878008bc:	e5932008 	ldr	r2, [r3, #8]
878008c0:	e583e008 	str	lr, [r3, #8]
878008c4:	e583c008 	str	ip, [r3, #8]
878008c8:	e5932000 	ldr	r2, [r3]
878008cc:	e49de004 	pop	{lr}		; (ldr lr, [sp], #4)
878008d0:	e3822001 	orr	r2, r2, #1, 0
878008d4:	e5832000 	str	r2, [r3]
878008d8:	eaffff00 	b	878004e0 <GPIO_Clean_Interrupt_Flag>

878008dc <Key0_Filter_Init>:
878008dc:	e3a03000 	mov	r3, #0, 0
878008e0:	e92d4010 	push	{r4, lr}
878008e4:	e1a0e003 	mov	lr, r3
878008e8:	e340320d 	movt	r3, #525	; 0x20d
878008ec:	e3001824 	movw	r1, #2084	; 0x824
878008f0:	e1a0200e 	mov	r2, lr
878008f4:	e593c000 	ldr	ip, [r3]
878008f8:	e3481780 	movt	r1, #34688	; 0x8780
878008fc:	e3a00058 	mov	r0, #88, 0	; 0x58
87800900:	e38cc002 	orr	ip, ip, #2, 0
87800904:	e583c000 	str	ip, [r3]
87800908:	e593c000 	ldr	ip, [r3]
8780090c:	e38cc004 	orr	ip, ip, #4, 0
87800910:	e583c000 	str	ip, [r3]
87800914:	e593c000 	ldr	ip, [r3]
87800918:	e38cc008 	orr	ip, ip, #8, 0
8780091c:	e583c000 	str	ip, [r3]
87800920:	e593c000 	ldr	ip, [r3]
87800924:	e3ccccff 	bic	ip, ip, #65280	; 0xff00
87800928:	e3ccc0f0 	bic	ip, ip, #240, 0	; 0xf0
8780092c:	e583c000 	str	ip, [r3]
87800930:	e593c000 	ldr	ip, [r3]
87800934:	e38cce41 	orr	ip, ip, #1040	; 0x410
87800938:	e583c000 	str	ip, [r3]
8780093c:	e593c000 	ldr	ip, [r3]
87800940:	e3ccc403 	bic	ip, ip, #50331648	; 0x3000000
87800944:	e583c000 	str	ip, [r3]
87800948:	e593c000 	ldr	ip, [r3]
8780094c:	e38cc401 	orr	ip, ip, #16777216	; 0x1000000
87800950:	e583c000 	str	ip, [r3]
87800954:	e583e00c 	str	lr, [r3, #12]
87800958:	ebffff99 	bl	878007c4 <Interrupt_Irq_Handler_Register>
8780095c:	ee9f3f10 	mrc	15, 4, r3, cr15, cr0, {0}
87800960:	e1a03823 	lsr	r3, r3, #16
87800964:	e3a02401 	mov	r2, #16777216	; 0x1000000
87800968:	e1a03803 	lsl	r3, r3, #16
8780096c:	e2833a01 	add	r3, r3, #4096	; 0x1000
87800970:	e5832108 	str	r2, [r3, #264]	; 0x108
87800974:	e8bd8010 	pop	{r4, pc}

87800978 <Key0_Init>:
87800978:	e92d4030 	push	{r4, r5, lr}
8780097c:	e3a03000 	mov	r3, #0, 0
87800980:	e24dd01c 	sub	sp, sp, #28, 0
87800984:	e3a04903 	mov	r4, #49152	; 0xc000
87800988:	e340320e 	movt	r3, #526	; 0x20e
8780098c:	e3a05000 	mov	r5, #0, 0
87800990:	e3a0c004 	mov	ip, #4, 0
87800994:	e3a00005 	mov	r0, #5, 0
87800998:	e30f1080 	movw	r1, #61568	; 0xf080
8780099c:	e3404209 	movt	r4, #521	; 0x209
878009a0:	e28d200c 	add	r2, sp, #12, 0
878009a4:	e583008c 	str	r0, [r3, #140]	; 0x8c
878009a8:	e5831318 	str	r1, [r3, #792]	; 0x318
878009ac:	e1a00004 	mov	r0, r4
878009b0:	e58d500c 	str	r5, [sp, #12]
878009b4:	e3a01012 	mov	r1, #18, 0
878009b8:	e5cd5010 	strb	r5, [sp, #16]
878009bc:	e58dc000 	str	ip, [sp]
878009c0:	e892000c 	ldm	r2, {r2, r3}
878009c4:	ebffff06 	bl	878005e4 <GPIO_Init>
878009c8:	ee9f3f10 	mrc	15, 4, r3, cr15, cr0, {0}
878009cc:	e1a03823 	lsr	r3, r3, #16
878009d0:	e3a0c008 	mov	ip, #8, 0
878009d4:	e3001890 	movw	r1, #2192	; 0x890
878009d8:	e1a03803 	lsl	r3, r3, #16
878009dc:	e1a02005 	mov	r2, r5
878009e0:	e3481780 	movt	r1, #34688	; 0x8780
878009e4:	e2833a01 	add	r3, r3, #4096	; 0x1000
878009e8:	e3a00063 	mov	r0, #99, 0	; 0x63
878009ec:	e583c10c 	str	ip, [r3, #268]	; 0x10c
878009f0:	ebffff73 	bl	878007c4 <Interrupt_Irq_Handler_Register>
878009f4:	e1a00004 	mov	r0, r4
878009f8:	e3a01012 	mov	r1, #18, 0
878009fc:	ebfffead 	bl	878004b8 <GPIO_Enable_Interrupt>
87800a00:	e28dd01c 	add	sp, sp, #28, 0
87800a04:	e8bd4030 	pop	{r4, r5, lr}
87800a08:	eaffffb3 	b	878008dc <Key0_Filter_Init>

87800a0c <Key0_Filter_Start>:
87800a0c:	e3a03000 	mov	r3, #0, 0
87800a10:	e3a02ffa 	mov	r2, #1000	; 0x3e8
87800a14:	e340320d 	movt	r3, #525	; 0x20d
87800a18:	e0000092 	mul	r0, r2, r0
87800a1c:	e5932000 	ldr	r2, [r3]
87800a20:	e3a01000 	mov	r1, #0, 0
87800a24:	e3c22001 	bic	r2, r2, #1, 0
87800a28:	e5832000 	str	r2, [r3]
87800a2c:	e5932008 	ldr	r2, [r3, #8]
87800a30:	e5831008 	str	r1, [r3, #8]
87800a34:	e5830008 	str	r0, [r3, #8]
87800a38:	e5932000 	ldr	r2, [r3]
87800a3c:	e3822001 	orr	r2, r2, #1, 0
87800a40:	e5832000 	str	r2, [r3]
87800a44:	e12fff1e 	bx	lr

87800a48 <Key0_Filter_Stop>:
87800a48:	e3a03000 	mov	r3, #0, 0
87800a4c:	e340320d 	movt	r3, #525	; 0x20d
87800a50:	e5932000 	ldr	r2, [r3]
87800a54:	e3c22001 	bic	r2, r2, #1, 0
87800a58:	e5832000 	str	r2, [r3]
87800a5c:	e12fff1e 	bx	lr

87800a60 <Epit1_Interrupt_Irq_Handler>:
87800a60:	e3a03000 	mov	r3, #0, 0
87800a64:	e92d4010 	push	{r4, lr}
87800a68:	e340320d 	movt	r3, #525	; 0x20d
87800a6c:	e5933004 	ldr	r3, [r3, #4]
87800a70:	e3130001 	tst	r3, #1, 0
87800a74:	1a000005 	bne	87800a90 <Epit1_Interrupt_Irq_Handler+0x30>
87800a78:	e3a03000 	mov	r3, #0, 0
87800a7c:	e340320d 	movt	r3, #525	; 0x20d
87800a80:	e5932004 	ldr	r2, [r3, #4]
87800a84:	e3822001 	orr	r2, r2, #1, 0
87800a88:	e5832004 	str	r2, [r3, #4]
87800a8c:	e8bd8010 	pop	{r4, pc}
87800a90:	e3034e0c 	movw	r4, #15884	; 0x3e0c
87800a94:	e3484780 	movt	r4, #34688	; 0x8780
87800a98:	e5d40000 	ldrb	r0, [r4]
87800a9c:	ebfffe73 	bl	87800470 <Led_Set>
87800aa0:	e5d40000 	ldrb	r0, [r4]
87800aa4:	ebffff1b 	bl	87800718 <Beep_Set>
87800aa8:	e5943000 	ldr	r3, [r4]
87800aac:	e16f3f13 	clz	r3, r3
87800ab0:	e1a032a3 	lsr	r3, r3, #5
87800ab4:	e5843000 	str	r3, [r4]
87800ab8:	eaffffee 	b	87800a78 <Epit1_Interrupt_Irq_Handler+0x18>

87800abc <Epit_Init>:
87800abc:	e92d4010 	push	{r4, lr}
87800ac0:	e3a04000 	mov	r4, #0, 0
87800ac4:	e1a0c004 	mov	ip, r4
87800ac8:	e340420d 	movt	r4, #525	; 0x20d
87800acc:	e3001a60 	movw	r1, #2656	; 0xa60
87800ad0:	e1a0200c 	mov	r2, ip
87800ad4:	e5943000 	ldr	r3, [r4]
87800ad8:	e3481780 	movt	r1, #34688	; 0x8780
87800adc:	e3a00058 	mov	r0, #88, 0	; 0x58
87800ae0:	e3833002 	orr	r3, r3, #2, 0
87800ae4:	e5843000 	str	r3, [r4]
87800ae8:	e5943000 	ldr	r3, [r4]
87800aec:	e3833004 	orr	r3, r3, #4, 0
87800af0:	e5843000 	str	r3, [r4]
87800af4:	e5943000 	ldr	r3, [r4]
87800af8:	e3833008 	orr	r3, r3, #8, 0
87800afc:	e5843000 	str	r3, [r4]
87800b00:	e5943000 	ldr	r3, [r4]
87800b04:	e3c33cff 	bic	r3, r3, #65280	; 0xff00
87800b08:	e3c330f0 	bic	r3, r3, #240, 0	; 0xf0
87800b0c:	e5843000 	str	r3, [r4]
87800b10:	e5943000 	ldr	r3, [r4]
87800b14:	e3833e41 	orr	r3, r3, #1040	; 0x410
87800b18:	e5843000 	str	r3, [r4]
87800b1c:	e5943000 	ldr	r3, [r4]
87800b20:	e3c33403 	bic	r3, r3, #50331648	; 0x3000000
87800b24:	e5843000 	str	r3, [r4]
87800b28:	e5943000 	ldr	r3, [r4]
87800b2c:	e3833401 	orr	r3, r3, #16777216	; 0x1000000
87800b30:	e5843000 	str	r3, [r4]
87800b34:	e5943008 	ldr	r3, [r4, #8]
87800b38:	e584c008 	str	ip, [r4, #8]
87800b3c:	e584c00c 	str	ip, [r4, #12]
87800b40:	ebffff1f 	bl	878007c4 <Interrupt_Irq_Handler_Register>
87800b44:	ee9f3f10 	mrc	15, 4, r3, cr15, cr0, {0}
87800b48:	e1a03823 	lsr	r3, r3, #16
87800b4c:	e3a02401 	mov	r2, #16777216	; 0x1000000
87800b50:	e1a03803 	lsl	r3, r3, #16
87800b54:	e2833a01 	add	r3, r3, #4096	; 0x1000
87800b58:	e5832108 	str	r2, [r3, #264]	; 0x108
87800b5c:	e5943000 	ldr	r3, [r4]
87800b60:	e3833001 	orr	r3, r3, #1, 0
87800b64:	e5843000 	str	r3, [r4]
87800b68:	e8bd8010 	pop	{r4, pc}

87800b6c <UART1_IO_Init>:
87800b6c:	e3a03000 	mov	r3, #0, 0
87800b70:	e30120b0 	movw	r2, #4272	; 0x10b0
87800b74:	e1a01003 	mov	r1, r3
87800b78:	e3a00003 	mov	r0, #3, 0
87800b7c:	e340320e 	movt	r3, #526	; 0x20e
87800b80:	e5831084 	str	r1, [r3, #132]	; 0x84
87800b84:	e5831088 	str	r1, [r3, #136]	; 0x88
87800b88:	e5830624 	str	r0, [r3, #1572]	; 0x624
87800b8c:	e5832310 	str	r2, [r3, #784]	; 0x310
87800b90:	e5832314 	str	r2, [r3, #788]	; 0x314
87800b94:	e12fff1e 	bx	lr

87800b98 <UART1_Disable>:
87800b98:	e3a03000 	mov	r3, #0, 0
87800b9c:	e3403202 	movt	r3, #514	; 0x202
87800ba0:	e5932080 	ldr	r2, [r3, #128]	; 0x80
87800ba4:	e3c22001 	bic	r2, r2, #1, 0
87800ba8:	e5832080 	str	r2, [r3, #128]	; 0x80
87800bac:	e12fff1e 	bx	lr

87800bb0 <UART1_Enable>:
87800bb0:	e3a03000 	mov	r3, #0, 0
87800bb4:	e3403202 	movt	r3, #514	; 0x202
87800bb8:	e5932080 	ldr	r2, [r3, #128]	; 0x80
87800bbc:	e3822001 	orr	r2, r2, #1, 0
87800bc0:	e5832080 	str	r2, [r3, #128]	; 0x80
87800bc4:	e12fff1e 	bx	lr

87800bc8 <UART1_Soft_Reset>:
87800bc8:	e3a03000 	mov	r3, #0, 0
87800bcc:	e3403202 	movt	r3, #514	; 0x202
87800bd0:	e5931084 	ldr	r1, [r3, #132]	; 0x84
87800bd4:	e1a02003 	mov	r2, r3
87800bd8:	e3c11001 	bic	r1, r1, #1, 0
87800bdc:	e5831084 	str	r1, [r3, #132]	; 0x84
87800be0:	e5923084 	ldr	r3, [r2, #132]	; 0x84
87800be4:	e3130001 	tst	r3, #1, 0
87800be8:	0afffffc 	beq	87800be0 <UART1_Soft_Reset+0x18>
87800bec:	e12fff1e 	bx	lr

87800bf0 <Uart1_SendChar>:
87800bf0:	e3a02000 	mov	r2, #0, 0
87800bf4:	e3402202 	movt	r2, #514	; 0x202
87800bf8:	e5923098 	ldr	r3, [r2, #152]	; 0x98
87800bfc:	e3130008 	tst	r3, #8, 0
87800c00:	0afffffc 	beq	87800bf8 <Uart1_SendChar+0x8>
87800c04:	e5820040 	str	r0, [r2, #64]	; 0x40
87800c08:	e12fff1e 	bx	lr

87800c0c <Uart1_SendString>:
87800c0c:	e5d01000 	ldrb	r1, [r0]
87800c10:	e3510000 	cmp	r1, #0, 0
87800c14:	012fff1e 	bxeq	lr
87800c18:	e3a02000 	mov	r2, #0, 0
87800c1c:	e3402202 	movt	r2, #514	; 0x202
87800c20:	e5923098 	ldr	r3, [r2, #152]	; 0x98
87800c24:	e3130008 	tst	r3, #8, 0
87800c28:	0afffffc 	beq	87800c20 <Uart1_SendString+0x14>
87800c2c:	e3510000 	cmp	r1, #0, 0
87800c30:	e5821040 	str	r1, [r2, #64]	; 0x40
87800c34:	012fff1e 	bxeq	lr
87800c38:	e5f01001 	ldrb	r1, [r0, #1]!
87800c3c:	eafffff7 	b	87800c20 <Uart1_SendString+0x14>

87800c40 <Uart1_ReadChar>:
87800c40:	e3a02000 	mov	r2, #0, 0
87800c44:	e3402202 	movt	r2, #514	; 0x202
87800c48:	e5923098 	ldr	r3, [r2, #152]	; 0x98
87800c4c:	e3130001 	tst	r3, #1, 0
87800c50:	0afffffc 	beq	87800c48 <Uart1_ReadChar+0x8>
87800c54:	e5920000 	ldr	r0, [r2]
87800c58:	e6ef0070 	uxtb	r0, r0
87800c5c:	e12fff1e 	bx	lr

87800c60 <Uart_SetBaudrate>:
87800c60:	e92d4ff0 	push	{r4, r5, r6, r7, r8, r9, sl, fp, lr}
87800c64:	e1b06201 	lsls	r6, r1, #4
87800c68:	e24dd01c 	sub	sp, sp, #28, 0
87800c6c:	e1a08001 	mov	r8, r1
87800c70:	e1a0b000 	mov	fp, r0
87800c74:	e1a09002 	mov	r9, r2
87800c78:	0a0000b7 	beq	87800f5c <Uart_SetBaudrate+0x2fc>
87800c7c:	e1a04006 	mov	r4, r6
87800c80:	e1a00002 	mov	r0, r2
87800c84:	ea000000 	b	87800c8c <Uart_SetBaudrate+0x2c>
87800c88:	e1a04001 	mov	r4, r1
87800c8c:	e1a01004 	mov	r1, r4
87800c90:	eb000b8b 	bl	87803ac4 <__aeabi_uidivmod>
87800c94:	e3510000 	cmp	r1, #0, 0
87800c98:	e1a00004 	mov	r0, r4
87800c9c:	1afffff9 	bne	87800c88 <Uart_SetBaudrate+0x28>
87800ca0:	e1a01004 	mov	r1, r4
87800ca4:	e1a00009 	mov	r0, r9
87800ca8:	eb000b5b 	bl	87803a1c <__udivsi3>
87800cac:	e1a01004 	mov	r1, r4
87800cb0:	e1a07000 	mov	r7, r0
87800cb4:	e1a00006 	mov	r0, r6
87800cb8:	eb000b57 	bl	87803a1c <__udivsi3>
87800cbc:	e1a06000 	mov	r6, r0
87800cc0:	e30f5ff9 	movw	r5, #65529	; 0xfff9
87800cc4:	e2472001 	sub	r2, r7, #1, 0
87800cc8:	e3405006 	movt	r5, #6
87800ccc:	e1570005 	cmp	r7, r5
87800cd0:	93560801 	cmpls	r6, #65536	; 0x10000
87800cd4:	23a05001 	movcs	r5, #1, 0
87800cd8:	33a05000 	movcc	r5, #0, 0
87800cdc:	2a00005c 	bcs	87800e54 <Uart_SetBaudrate+0x1f4>
87800ce0:	e3083001 	movw	r3, #32769	; 0x8001
87800ce4:	e1a0a207 	lsl	sl, r7, #4
87800ce8:	e3483000 	movt	r3, #32768	; 0x8000
87800cec:	e58d5008 	str	r5, [sp, #8]
87800cf0:	e0832293 	umull	r2, r3, r3, r2
87800cf4:	e1a0400a 	mov	r4, sl
87800cf8:	e58d6004 	str	r6, [sp, #4]
87800cfc:	e1a037a3 	lsr	r3, r3, #15
87800d00:	e2435001 	sub	r5, r3, #1, 0
87800d04:	e2833001 	add	r3, r3, #1, 0
87800d08:	e58d3014 	str	r3, [sp, #20]
87800d0c:	e3550005 	cmp	r5, #5, 0
87800d10:	93033d94 	movwls	r3, #15764	; 0x3d94
87800d14:	83a03005 	movhi	r3, #5, 0
87800d18:	93483780 	movtls	r3, #34688	; 0x8780
87800d1c:	97933105 	ldrls	r3, [r3, r5, lsl #2]
87800d20:	e35a0000 	cmp	sl, #0, 0
87800d24:	e1a05009 	mov	r5, r9
87800d28:	e58d3010 	str	r3, [sp, #16]
87800d2c:	e3a03000 	mov	r3, #0, 0
87800d30:	0a000015 	beq	87800d8c <Uart_SetBaudrate+0x12c>
87800d34:	e1a0400a 	mov	r4, sl
87800d38:	e1a00005 	mov	r0, r5
87800d3c:	e3a03000 	mov	r3, #0, 0
87800d40:	e1a02004 	mov	r2, r4
87800d44:	e1a01003 	mov	r1, r3
87800d48:	eb000b9a 	bl	87803bb8 <__aeabi_uldivmod>
87800d4c:	e3520000 	cmp	r2, #0, 0
87800d50:	e1a00004 	mov	r0, r4
87800d54:	e3a03000 	mov	r3, #0, 0
87800d58:	e1a04002 	mov	r4, r2
87800d5c:	1afffff6 	bne	87800d3c <Uart_SetBaudrate+0xdc>
87800d60:	e1a05000 	mov	r5, r0
87800d64:	e1a0000a 	mov	r0, sl
87800d68:	e1a01005 	mov	r1, r5
87800d6c:	e58d300c 	str	r3, [sp, #12]
87800d70:	eb000b29 	bl	87803a1c <__udivsi3>
87800d74:	e1a01005 	mov	r1, r5
87800d78:	e1a04000 	mov	r4, r0
87800d7c:	e1a00009 	mov	r0, r9
87800d80:	eb000b25 	bl	87803a1c <__udivsi3>
87800d84:	e59d300c 	ldr	r3, [sp, #12]
87800d88:	e1a05000 	mov	r5, r0
87800d8c:	e59d1004 	ldr	r1, [sp, #4]
87800d90:	e1a02004 	mov	r2, r4
87800d94:	e59de008 	ldr	lr, [sp, #8]
87800d98:	e00c0391 	mul	ip, r1, r3
87800d9c:	e3a03000 	mov	r3, #0, 0
87800da0:	e0810591 	umull	r0, r1, r1, r5
87800da4:	e025ce95 	mla	r5, r5, lr, ip
87800da8:	e0851001 	add	r1, r5, r1
87800dac:	eb000b81 	bl	87803bb8 <__aeabi_uldivmod>
87800db0:	e3a03000 	mov	r3, #0, 0
87800db4:	e1a04000 	mov	r4, r0
87800db8:	e1530001 	cmp	r3, r1
87800dbc:	e1a05001 	mov	r5, r1
87800dc0:	01580000 	cmpeq	r8, r0
87800dc4:	e1a02008 	mov	r2, r8
87800dc8:	9a00001e 	bls	87800e48 <Uart_SetBaudrate+0x1e8>
87800dcc:	e0522004 	subs	r2, r2, r4
87800dd0:	e0c33005 	sbc	r3, r3, r5
87800dd4:	e1a00002 	mov	r0, r2
87800dd8:	e1a01003 	mov	r1, r3
87800ddc:	e308251f 	movw	r2, #34079	; 0x851f
87800de0:	e34521eb 	movt	r2, #20971	; 0x51eb
87800de4:	e0823892 	umull	r3, r2, r2, r8
87800de8:	e3a03000 	mov	r3, #0, 0
87800dec:	e1530001 	cmp	r3, r1
87800df0:	e1a022a2 	lsr	r2, r2, #5
87800df4:	e0822082 	add	r2, r2, r2, lsl #1
87800df8:	01520000 	cmpeq	r2, r0
87800dfc:	9a00000f 	bls	87800e40 <Uart_SetBaudrate+0x1e0>
87800e00:	e59b3090 	ldr	r3, [fp, #144]	; 0x90
87800e04:	e2466001 	sub	r6, r6, #1, 0
87800e08:	e59d2010 	ldr	r2, [sp, #16]
87800e0c:	e6ff6076 	uxth	r6, r6
87800e10:	e59d1014 	ldr	r1, [sp, #20]
87800e14:	e1a00007 	mov	r0, r7
87800e18:	e3c33d0e 	bic	r3, r3, #896	; 0x380
87800e1c:	e58b3090 	str	r3, [fp, #144]	; 0x90
87800e20:	e59b3090 	ldr	r3, [fp, #144]	; 0x90
87800e24:	e1833382 	orr	r3, r3, r2, lsl #7
87800e28:	e58b3090 	str	r3, [fp, #144]	; 0x90
87800e2c:	e58b60a4 	str	r6, [fp, #164]	; 0xa4
87800e30:	eb000af9 	bl	87803a1c <__udivsi3>
87800e34:	e2400001 	sub	r0, r0, #1, 0
87800e38:	e6ff0070 	uxth	r0, r0
87800e3c:	e58b00a8 	str	r0, [fp, #168]	; 0xa8
87800e40:	e28dd01c 	add	sp, sp, #28, 0
87800e44:	e8bd8ff0 	pop	{r4, r5, r6, r7, r8, r9, sl, fp, pc}
87800e48:	e0500002 	subs	r0, r0, r2
87800e4c:	e0c11003 	sbc	r1, r1, r3
87800e50:	eaffffe1 	b	87800ddc <Uart_SetBaudrate+0x17c>
87800e54:	e3063db9 	movw	r3, #28089	; 0x6db9
87800e58:	e3084001 	movw	r4, #32769	; 0x8001
87800e5c:	e3423493 	movt	r3, #9363	; 0x2493
87800e60:	e3484000 	movt	r4, #32768	; 0x8000
87800e64:	e0831293 	umull	r1, r3, r3, r2
87800e68:	e2461001 	sub	r1, r6, #1, 0
87800e6c:	e0810194 	umull	r0, r1, r4, r1
87800e70:	e0422003 	sub	r2, r2, r3
87800e74:	e08330a2 	add	r3, r3, r2, lsr #1
87800e78:	e1a017a1 	lsr	r1, r1, #15
87800e7c:	e1a02923 	lsr	r2, r3, #18
87800e80:	e2811001 	add	r1, r1, #1, 0
87800e84:	e2823001 	add	r3, r2, #1, 0
87800e88:	e1510003 	cmp	r1, r3
87800e8c:	21a03001 	movcs	r3, r1
87800e90:	e1530007 	cmp	r3, r7
87800e94:	8a000014 	bhi	87800eec <Uart_SetBaudrate+0x28c>
87800e98:	e1a01003 	mov	r1, r3
87800e9c:	e1a00007 	mov	r0, r7
87800ea0:	e58d3004 	str	r3, [sp, #4]
87800ea4:	eb000adc 	bl	87803a1c <__udivsi3>
87800ea8:	e2402001 	sub	r2, r0, #1, 0
87800eac:	e59d3004 	ldr	r3, [sp, #4]
87800eb0:	e0821294 	umull	r1, r2, r4, r2
87800eb4:	e1a0a200 	lsl	sl, r0, #4
87800eb8:	e1a07000 	mov	r7, r0
87800ebc:	e1530006 	cmp	r3, r6
87800ec0:	e1a0400a 	mov	r4, sl
87800ec4:	e1a027a2 	lsr	r2, r2, #15
87800ec8:	e2425001 	sub	r5, r2, #1, 0
87800ecc:	e2822001 	add	r2, r2, #1, 0
87800ed0:	e58d2014 	str	r2, [sp, #20]
87800ed4:	9a00000c 	bls	87800f0c <Uart_SetBaudrate+0x2ac>
87800ed8:	e3a06001 	mov	r6, #1, 0
87800edc:	e3a03000 	mov	r3, #0, 0
87800ee0:	e58d6004 	str	r6, [sp, #4]
87800ee4:	e58d3008 	str	r3, [sp, #8]
87800ee8:	eaffff87 	b	87800d0c <Uart_SetBaudrate+0xac>
87800eec:	e1530006 	cmp	r3, r6
87800ef0:	8a00000d 	bhi	87800f2c <Uart_SetBaudrate+0x2cc>
87800ef4:	e3a02001 	mov	r2, #1, 0
87800ef8:	e3a04010 	mov	r4, #16, 0
87800efc:	e1a0a004 	mov	sl, r4
87800f00:	e1a07002 	mov	r7, r2
87800f04:	e3e05000 	mvn	r5, #0, 0
87800f08:	e58d2014 	str	r2, [sp, #20]
87800f0c:	e1a01003 	mov	r1, r3
87800f10:	e1a00006 	mov	r0, r6
87800f14:	eb000ac0 	bl	87803a1c <__udivsi3>
87800f18:	e3a03000 	mov	r3, #0, 0
87800f1c:	e1a06000 	mov	r6, r0
87800f20:	e58d3008 	str	r3, [sp, #8]
87800f24:	e58d0004 	str	r0, [sp, #4]
87800f28:	eaffff77 	b	87800d0c <Uart_SetBaudrate+0xac>
87800f2c:	e3a03001 	mov	r3, #1, 0
87800f30:	e1a05009 	mov	r5, r9
87800f34:	e1a06003 	mov	r6, r3
87800f38:	e58d3004 	str	r3, [sp, #4]
87800f3c:	e3a03000 	mov	r3, #0, 0
87800f40:	e58d6014 	str	r6, [sp, #20]
87800f44:	e58d3008 	str	r3, [sp, #8]
87800f48:	e3a03005 	mov	r3, #5, 0
87800f4c:	e1a07006 	mov	r7, r6
87800f50:	e58d3010 	str	r3, [sp, #16]
87800f54:	e3a0a010 	mov	sl, #16, 0
87800f58:	eaffff75 	b	87800d34 <Uart_SetBaudrate+0xd4>
87800f5c:	e1a07002 	mov	r7, r2
87800f60:	eaffff56 	b	87800cc0 <Uart_SetBaudrate+0x60>

87800f64 <UART1_Config>:
87800f64:	e3a03000 	mov	r3, #0, 0
87800f68:	e3a02b2d 	mov	r2, #46080	; 0xb400
87800f6c:	e3403202 	movt	r3, #514	; 0x202
87800f70:	e3a01cc2 	mov	r1, #49664	; 0xc200
87800f74:	e593c080 	ldr	ip, [r3, #128]	; 0x80
87800f78:	e1a00003 	mov	r0, r3
87800f7c:	e34024c4 	movt	r2, #1220	; 0x4c4
87800f80:	e3401001 	movt	r1, #1
87800f84:	e3ccc001 	bic	ip, ip, #1, 0
87800f88:	e583c080 	str	ip, [r3, #128]	; 0x80
87800f8c:	e593c084 	ldr	ip, [r3, #132]	; 0x84
87800f90:	e38cc002 	orr	ip, ip, #2, 0
87800f94:	e583c084 	str	ip, [r3, #132]	; 0x84
87800f98:	e593c084 	ldr	ip, [r3, #132]	; 0x84
87800f9c:	e38cc004 	orr	ip, ip, #4, 0
87800fa0:	e583c084 	str	ip, [r3, #132]	; 0x84
87800fa4:	e593c084 	ldr	ip, [r3, #132]	; 0x84
87800fa8:	e38cc020 	orr	ip, ip, #32, 0
87800fac:	e583c084 	str	ip, [r3, #132]	; 0x84
87800fb0:	e593c084 	ldr	ip, [r3, #132]	; 0x84
87800fb4:	e3ccc040 	bic	ip, ip, #64, 0	; 0x40
87800fb8:	e583c084 	str	ip, [r3, #132]	; 0x84
87800fbc:	e593c084 	ldr	ip, [r3, #132]	; 0x84
87800fc0:	e3cccc01 	bic	ip, ip, #256	; 0x100
87800fc4:	e583c084 	str	ip, [r3, #132]	; 0x84
87800fc8:	e593c084 	ldr	ip, [r3, #132]	; 0x84
87800fcc:	e38cc901 	orr	ip, ip, #16384	; 0x4000
87800fd0:	e583c084 	str	ip, [r3, #132]	; 0x84
87800fd4:	e593c088 	ldr	ip, [r3, #136]	; 0x88
87800fd8:	e38cc004 	orr	ip, ip, #4, 0
87800fdc:	e583c088 	str	ip, [r3, #136]	; 0x88
87800fe0:	eaffff1e 	b	87800c60 <Uart_SetBaudrate>

87800fe4 <UART1_Init>:
87800fe4:	e3a02000 	mov	r2, #0, 0
87800fe8:	e30110b0 	movw	r1, #4272	; 0x10b0
87800fec:	e1a03002 	mov	r3, r2
87800ff0:	e3a0c003 	mov	ip, #3, 0
87800ff4:	e340220e 	movt	r2, #526	; 0x20e
87800ff8:	e1a00003 	mov	r0, r3
87800ffc:	e3403202 	movt	r3, #514	; 0x202
87801000:	e92d4010 	push	{r4, lr}
87801004:	e5820084 	str	r0, [r2, #132]	; 0x84
87801008:	e1a04003 	mov	r4, r3
8780100c:	e5820088 	str	r0, [r2, #136]	; 0x88
87801010:	e582c624 	str	ip, [r2, #1572]	; 0x624
87801014:	e5821310 	str	r1, [r2, #784]	; 0x310
87801018:	e5821314 	str	r1, [r2, #788]	; 0x314
8780101c:	e5932080 	ldr	r2, [r3, #128]	; 0x80
87801020:	e3c22001 	bic	r2, r2, #1, 0
87801024:	e5832080 	str	r2, [r3, #128]	; 0x80
87801028:	e5932084 	ldr	r2, [r3, #132]	; 0x84
8780102c:	e3c22001 	bic	r2, r2, #1, 0
87801030:	e5832084 	str	r2, [r3, #132]	; 0x84
87801034:	e5943084 	ldr	r3, [r4, #132]	; 0x84
87801038:	e3130001 	tst	r3, #1, 0
8780103c:	0afffffc 	beq	87801034 <UART1_Init+0x50>
87801040:	ebffffc7 	bl	87800f64 <UART1_Config>
87801044:	e5943080 	ldr	r3, [r4, #128]	; 0x80
87801048:	e3833001 	orr	r3, r3, #1, 0
8780104c:	e5843080 	str	r3, [r4, #128]	; 0x80
87801050:	e8bd8010 	pop	{r4, pc}

87801054 <putc>:
87801054:	eafffee5 	b	87800bf0 <Uart1_SendChar>

87801058 <getc>:
87801058:	eafffef8 	b	87800c40 <Uart1_ReadChar>

8780105c <raise>:
8780105c:	e12fff1e 	bx	lr

87801060 <LCD_Device_Id>:
87801060:	e3033dac 	movw	r3, #15788	; 0x3dac
87801064:	e92d41f0 	push	{r4, r5, r6, r7, r8, lr}
87801068:	e3483780 	movt	r3, #34688	; 0x8780
8780106c:	e24dd038 	sub	sp, sp, #56, 0	; 0x38
87801070:	e3a04000 	mov	r4, #0, 0
87801074:	e3a06005 	mov	r6, #5, 0
87801078:	e8930007 	ldm	r3, {r0, r1, r2}
8780107c:	e340420e 	movt	r4, #526	; 0x20e
87801080:	e301c0b0 	movw	ip, #4272	; 0x10b0
87801084:	e28d3008 	add	r3, sp, #8, 0
87801088:	e5846110 	str	r6, [r4, #272]	; 0x110
8780108c:	e3a05000 	mov	r5, #0, 0
87801090:	e584c39c 	str	ip, [r4, #924]	; 0x39c
87801094:	e3a07001 	mov	r7, #1, 0
87801098:	e8830007 	stm	r3, {r0, r1, r2}
8780109c:	e3a00901 	mov	r0, #16384	; 0x4000
878010a0:	e59dc010 	ldr	ip, [sp, #16]
878010a4:	e340020a 	movt	r0, #522	; 0x20a
878010a8:	e3a01003 	mov	r1, #3, 0
878010ac:	e30f8080 	movw	r8, #61568	; 0xf080
878010b0:	e893000c 	ldm	r3, {r2, r3}
878010b4:	e58dc000 	str	ip, [sp]
878010b8:	ebfffd49 	bl	878005e4 <GPIO_Init>
878010bc:	e28d3014 	add	r3, sp, #20, 0
878010c0:	e3a00901 	mov	r0, #16384	; 0x4000
878010c4:	e5846134 	str	r6, [r4, #308]	; 0x134
878010c8:	e340020a 	movt	r0, #522	; 0x20a
878010cc:	e58483c0 	str	r8, [r4, #960]	; 0x3c0
878010d0:	e3a0100c 	mov	r1, #12, 0
878010d4:	e58d5014 	str	r5, [sp, #20]
878010d8:	e58d5000 	str	r5, [sp]
878010dc:	e5cd7018 	strb	r7, [sp, #24]
878010e0:	e893000c 	ldm	r3, {r2, r3}
878010e4:	ebfffd3e 	bl	878005e4 <GPIO_Init>
878010e8:	e28d3020 	add	r3, sp, #32, 0
878010ec:	e3a00901 	mov	r0, #16384	; 0x4000
878010f0:	e5846154 	str	r6, [r4, #340]	; 0x154
878010f4:	e340020a 	movt	r0, #522	; 0x20a
878010f8:	e58483e0 	str	r8, [r4, #992]	; 0x3e0
878010fc:	e3a01014 	mov	r1, #20, 0
87801100:	e58d5020 	str	r5, [sp, #32]
87801104:	e58d5000 	str	r5, [sp]
87801108:	e5cd7024 	strb	r7, [sp, #36]	; 0x24
8780110c:	e893000c 	ldm	r3, {r2, r3}
87801110:	ebfffd33 	bl	878005e4 <GPIO_Init>
87801114:	e28d302c 	add	r3, sp, #44, 0	; 0x2c
87801118:	e3a00901 	mov	r0, #16384	; 0x4000
8780111c:	e5846174 	str	r6, [r4, #372]	; 0x174
87801120:	e340020a 	movt	r0, #522	; 0x20a
87801124:	e5848400 	str	r8, [r4, #1024]	; 0x400
87801128:	e3a0101c 	mov	r1, #28, 0
8780112c:	e58d502c 	str	r5, [sp, #44]	; 0x2c
87801130:	e58d5000 	str	r5, [sp]
87801134:	e5cd7030 	strb	r7, [sp, #48]	; 0x30
87801138:	e893000c 	ldm	r3, {r2, r3}
8780113c:	ebfffd28 	bl	878005e4 <GPIO_Init>
87801140:	e3a00901 	mov	r0, #16384	; 0x4000
87801144:	e3a0100c 	mov	r1, #12, 0
87801148:	e340020a 	movt	r0, #522	; 0x20a
8780114c:	ebfffcd5 	bl	878004a8 <GPIO_ReadValue>
87801150:	e1a04000 	mov	r4, r0
87801154:	e3a00901 	mov	r0, #16384	; 0x4000
87801158:	e3a01014 	mov	r1, #20, 0
8780115c:	e340020a 	movt	r0, #522	; 0x20a
87801160:	ebfffcd0 	bl	878004a8 <GPIO_ReadValue>
87801164:	e1a05000 	mov	r5, r0
87801168:	e3a00901 	mov	r0, #16384	; 0x4000
8780116c:	e340020a 	movt	r0, #522	; 0x20a
87801170:	e3a0101c 	mov	r1, #28, 0
87801174:	ebfffccb 	bl	878004a8 <GPIO_ReadValue>
87801178:	e1a03104 	lsl	r3, r4, #2
8780117c:	e1833715 	orr	r3, r3, r5, lsl r7
87801180:	e1930000 	orrs	r0, r3, r0
87801184:	03040342 	movweq	r0, #17218	; 0x4342
87801188:	0a00000a 	beq	878011b8 <LCD_Device_Id+0x158>
8780118c:	e1500007 	cmp	r0, r7
87801190:	03070084 	movweq	r0, #28804	; 0x7084
87801194:	0a000007 	beq	878011b8 <LCD_Device_Id+0x158>
87801198:	e3500002 	cmp	r0, #2, 0
8780119c:	03070016 	movweq	r0, #28694	; 0x7016
878011a0:	0a000004 	beq	878011b8 <LCD_Device_Id+0x158>
878011a4:	e1500006 	cmp	r0, r6
878011a8:	e3013018 	movw	r3, #4120	; 0x1018
878011ac:	e3042384 	movw	r2, #17284	; 0x4384
878011b0:	01a00003 	moveq	r0, r3
878011b4:	11a00002 	movne	r0, r2
878011b8:	e28dd038 	add	sp, sp, #56, 0	; 0x38
878011bc:	e8bd81f0 	pop	{r4, r5, r6, r7, r8, pc}

878011c0 <LCD_Init_Device_Info>:
878011c0:	e92d4010 	push	{r4, lr}
878011c4:	ebffffa5 	bl	87801060 <LCD_Device_Id>
878011c8:	e1a04000 	mov	r4, r0
878011cc:	e1a01000 	mov	r1, r0
878011d0:	e3030dc8 	movw	r0, #15816	; 0x3dc8
878011d4:	e3480780 	movt	r0, #34688	; 0x8780
878011d8:	eb0001a0 	bl	87801860 <printf>
878011dc:	e3043384 	movw	r3, #17284	; 0x4384
878011e0:	e1540003 	cmp	r4, r3
878011e4:	e3044c14 	movw	r4, #19476	; 0x4c14
878011e8:	13484780 	movtne	r4, #34688	; 0x8780
878011ec:	0a000007 	beq	87801210 <LCD_Init_Device_Info+0x50>
878011f0:	e3a00004 	mov	r0, #4, 0
878011f4:	e3a01489 	mov	r1, #-1996488704	; 0x89000000
878011f8:	e3e024ff 	mvn	r2, #-16777216	; 0xff000000
878011fc:	e3a03000 	mov	r3, #0, 0
87801200:	e5c40004 	strb	r0, [r4, #4]
87801204:	e5841014 	str	r1, [r4, #20]
87801208:	e1c421f8 	strd	r2, [r4, #24]
8780120c:	e8bd8010 	pop	{r4, pc}
87801210:	e3a02e32 	mov	r2, #800	; 0x320
87801214:	e3a00020 	mov	r0, #32, 0
87801218:	e3a03030 	mov	r3, #48, 0	; 0x30
8780121c:	e3484780 	movt	r4, #34688	; 0x8780
87801220:	e34021e0 	movt	r2, #480	; 0x1e0
87801224:	e3a01003 	mov	r1, #3, 0
87801228:	e340000d 	movt	r0, #13
8780122c:	e3403058 	movt	r3, #88	; 0x58
87801230:	e3a0c028 	mov	ip, #40, 0	; 0x28
87801234:	e5842000 	str	r2, [r4]
87801238:	e1c410b6 	strh	r1, [r4, #6]
8780123c:	e3a02008 	mov	r2, #8, 0
87801240:	e5840008 	str	r0, [r4, #8]
87801244:	e3a01004 	mov	r1, #4, 0
87801248:	e3a0002a 	mov	r0, #42, 0	; 0x2a
8780124c:	e584300c 	str	r3, [r4, #12]
87801250:	e1c4c1b0 	strh	ip, [r4, #16]
87801254:	ebfffc1d 	bl	878002d0 <Clk_LCD_Init>
87801258:	eaffffe4 	b	878011f0 <LCD_Init_Device_Info+0x30>

8780125c <LCD_IO_Init>:
8780125c:	e3a03000 	mov	r3, #0, 0
87801260:	e3a010b9 	mov	r1, #185, 0	; 0xb9
87801264:	e1a02003 	mov	r2, r3
87801268:	e340320e 	movt	r3, #526	; 0x20e
8780126c:	e5832118 	str	r2, [r3, #280]	; 0x118
87801270:	e583211c 	str	r2, [r3, #284]	; 0x11c
87801274:	e5832120 	str	r2, [r3, #288]	; 0x120
87801278:	e5832124 	str	r2, [r3, #292]	; 0x124
8780127c:	e5832128 	str	r2, [r3, #296]	; 0x128
87801280:	e583212c 	str	r2, [r3, #300]	; 0x12c
87801284:	e5832130 	str	r2, [r3, #304]	; 0x130
87801288:	e5832134 	str	r2, [r3, #308]	; 0x134
8780128c:	e5832138 	str	r2, [r3, #312]	; 0x138
87801290:	e583213c 	str	r2, [r3, #316]	; 0x13c
87801294:	e5832140 	str	r2, [r3, #320]	; 0x140
87801298:	e5832144 	str	r2, [r3, #324]	; 0x144
8780129c:	e5832148 	str	r2, [r3, #328]	; 0x148
878012a0:	e583214c 	str	r2, [r3, #332]	; 0x14c
878012a4:	e5832150 	str	r2, [r3, #336]	; 0x150
878012a8:	e5832154 	str	r2, [r3, #340]	; 0x154
878012ac:	e5832158 	str	r2, [r3, #344]	; 0x158
878012b0:	e583215c 	str	r2, [r3, #348]	; 0x15c
878012b4:	e5832160 	str	r2, [r3, #352]	; 0x160
878012b8:	e5832164 	str	r2, [r3, #356]	; 0x164
878012bc:	e5832168 	str	r2, [r3, #360]	; 0x168
878012c0:	e583216c 	str	r2, [r3, #364]	; 0x16c
878012c4:	e5832170 	str	r2, [r3, #368]	; 0x170
878012c8:	e5832174 	str	r2, [r3, #372]	; 0x174
878012cc:	e5832104 	str	r2, [r3, #260]	; 0x104
878012d0:	e5832108 	str	r2, [r3, #264]	; 0x108
878012d4:	e583210c 	str	r2, [r3, #268]	; 0x10c
878012d8:	e58325dc 	str	r2, [r3, #1500]	; 0x5dc
878012dc:	e5832110 	str	r2, [r3, #272]	; 0x110
878012e0:	e58313a4 	str	r1, [r3, #932]	; 0x3a4
878012e4:	e58313a8 	str	r1, [r3, #936]	; 0x3a8
878012e8:	e58313ac 	str	r1, [r3, #940]	; 0x3ac
878012ec:	e58313b0 	str	r1, [r3, #944]	; 0x3b0
878012f0:	e58313b4 	str	r1, [r3, #948]	; 0x3b4
878012f4:	e58313b8 	str	r1, [r3, #952]	; 0x3b8
878012f8:	e58313bc 	str	r1, [r3, #956]	; 0x3bc
878012fc:	e58313c0 	str	r1, [r3, #960]	; 0x3c0
87801300:	e58313c4 	str	r1, [r3, #964]	; 0x3c4
87801304:	e58313c8 	str	r1, [r3, #968]	; 0x3c8
87801308:	e58313cc 	str	r1, [r3, #972]	; 0x3cc
8780130c:	e58313d0 	str	r1, [r3, #976]	; 0x3d0
87801310:	e58313d4 	str	r1, [r3, #980]	; 0x3d4
87801314:	e58313d8 	str	r1, [r3, #984]	; 0x3d8
87801318:	e58313dc 	str	r1, [r3, #988]	; 0x3dc
8780131c:	e58313e0 	str	r1, [r3, #992]	; 0x3e0
87801320:	e58313e4 	str	r1, [r3, #996]	; 0x3e4
87801324:	e58313e8 	str	r1, [r3, #1000]	; 0x3e8
87801328:	e58313ec 	str	r1, [r3, #1004]	; 0x3ec
8780132c:	e58313f0 	str	r1, [r3, #1008]	; 0x3f0
87801330:	e58313f4 	str	r1, [r3, #1012]	; 0x3f4
87801334:	e58313f8 	str	r1, [r3, #1016]	; 0x3f8
87801338:	e58313fc 	str	r1, [r3, #1020]	; 0x3fc
8780133c:	e5831400 	str	r1, [r3, #1024]	; 0x400
87801340:	e5831390 	str	r1, [r3, #912]	; 0x390
87801344:	e5831394 	str	r1, [r3, #916]	; 0x394
87801348:	e5831398 	str	r1, [r3, #920]	; 0x398
8780134c:	e583139c 	str	r1, [r3, #924]	; 0x39c
87801350:	e12fff1e 	bx	lr

87801354 <LCD_Open_Background_Light>:
87801354:	e3033dac 	movw	r3, #15788	; 0x3dac
87801358:	e92d4010 	push	{r4, lr}
8780135c:	e3483780 	movt	r3, #34688	; 0x8780
87801360:	e24dd018 	sub	sp, sp, #24, 0
87801364:	e3a0c000 	mov	ip, #0, 0
87801368:	e3a0ee1b 	mov	lr, #432	; 0x1b0
8780136c:	e8930007 	ldm	r3, {r0, r1, r2}
87801370:	e340c20e 	movt	ip, #526	; 0x20e
87801374:	e28d300c 	add	r3, sp, #12, 0
87801378:	e3a04005 	mov	r4, #5, 0
8780137c:	e58c407c 	str	r4, [ip, #124]	; 0x7c
87801380:	e58ce308 	str	lr, [ip, #776]	; 0x308
87801384:	e8830007 	stm	r3, {r0, r1, r2}
87801388:	e3a00903 	mov	r0, #49152	; 0xc000
8780138c:	e59dc014 	ldr	ip, [sp, #20]
87801390:	e3400209 	movt	r0, #521	; 0x209
87801394:	e3a01008 	mov	r1, #8, 0
87801398:	e893000c 	ldm	r3, {r2, r3}
8780139c:	e58dc000 	str	ip, [sp]
878013a0:	ebfffc8f 	bl	878005e4 <GPIO_Init>
878013a4:	e3030dd8 	movw	r0, #15832	; 0x3dd8
878013a8:	e3480780 	movt	r0, #34688	; 0x8780
878013ac:	e28dd018 	add	sp, sp, #24, 0
878013b0:	e8bd4010 	pop	{r4, lr}
878013b4:	ea000129 	b	87801860 <printf>

878013b8 <LCD_Soft_Reset>:
878013b8:	e3a03902 	mov	r3, #32768	; 0x8000
878013bc:	e340321c 	movt	r3, #540	; 0x21c
878013c0:	e5932000 	ldr	r2, [r3]
878013c4:	e3822102 	orr	r2, r2, #-2147483648	; 0x80000000
878013c8:	e5832000 	str	r2, [r3]
878013cc:	e12fff1e 	bx	lr

878013d0 <LCD_Soft_Reset_Complete>:
878013d0:	e3a03902 	mov	r3, #32768	; 0x8000
878013d4:	e340321c 	movt	r3, #540	; 0x21c
878013d8:	e5932000 	ldr	r2, [r3]
878013dc:	e3c22102 	bic	r2, r2, #-2147483648	; 0x80000000
878013e0:	e5832000 	str	r2, [r3]
878013e4:	e12fff1e 	bx	lr

878013e8 <LCD_Enable>:
878013e8:	e3a03902 	mov	r3, #32768	; 0x8000
878013ec:	e340321c 	movt	r3, #540	; 0x21c
878013f0:	e5932000 	ldr	r2, [r3]
878013f4:	e3822001 	orr	r2, r2, #1, 0
878013f8:	e5832000 	str	r2, [r3]
878013fc:	e12fff1e 	bx	lr

87801400 <LCD_Disable>:
87801400:	e3a03902 	mov	r3, #32768	; 0x8000
87801404:	e340321c 	movt	r3, #540	; 0x21c
87801408:	e5932000 	ldr	r2, [r3]
8780140c:	e5832000 	str	r2, [r3]
87801410:	e12fff1e 	bx	lr

87801414 <LCD_Register_Config>:
87801414:	e3a03902 	mov	r3, #32768	; 0x8000
87801418:	e3a0c000 	mov	ip, #0, 0
8780141c:	e340321c 	movt	r3, #540	; 0x21c
87801420:	e92d40f0 	push	{r4, r5, r6, r7, lr}
87801424:	e583c000 	str	ip, [r3]
87801428:	e3042c14 	movw	r2, #19476	; 0x4c14
8780142c:	e3482780 	movt	r2, #34688	; 0x8780
87801430:	e5931000 	ldr	r1, [r3]
87801434:	e1d2e0b0 	ldrh	lr, [r2]
87801438:	e1d270b2 	ldrh	r7, [r2, #2]
8780143c:	e3811020 	orr	r1, r1, #32, 0
87801440:	e1d200b6 	ldrh	r0, [r2, #6]
87801444:	e5831000 	str	r1, [r3]
87801448:	e5934000 	ldr	r4, [r3]
8780144c:	e1d210b8 	ldrh	r1, [r2, #8]
87801450:	e3844c03 	orr	r4, r4, #768	; 0x300
87801454:	e5834000 	str	r4, [r3]
87801458:	e0811000 	add	r1, r1, r0
8780145c:	e5934000 	ldr	r4, [r3]
87801460:	e0875001 	add	r5, r7, r1
87801464:	e3844b03 	orr	r4, r4, #3072	; 0xc00
87801468:	e5834000 	str	r4, [r3]
8780146c:	e5934000 	ldr	r4, [r3]
87801470:	e3844802 	orr	r4, r4, #131072	; 0x20000
87801474:	e5834000 	str	r4, [r3]
87801478:	e5936000 	ldr	r6, [r3]
8780147c:	e3866702 	orr	r6, r6, #524288	; 0x80000
87801480:	e5836000 	str	r6, [r3]
87801484:	e5936010 	ldr	r6, [r3, #16]
87801488:	e3c66807 	bic	r6, r6, #458752	; 0x70000
8780148c:	e5836010 	str	r6, [r3, #16]
87801490:	e583c030 	str	ip, [r3, #48]	; 0x30
87801494:	e5936030 	ldr	r6, [r3, #48]	; 0x30
87801498:	e186600e 	orr	r6, r6, lr
8780149c:	e5836030 	str	r6, [r3, #48]	; 0x30
878014a0:	e5934030 	ldr	r4, [r3, #48]	; 0x30
878014a4:	e1844807 	orr	r4, r4, r7, lsl #16
878014a8:	e5834030 	str	r4, [r3, #48]	; 0x30
878014ac:	e583c070 	str	ip, [r3, #112]	; 0x70
878014b0:	e5934070 	ldr	r4, [r3, #112]	; 0x70
878014b4:	e1800004 	orr	r0, r0, r4
878014b8:	e5830070 	str	r0, [r3, #112]	; 0x70
878014bc:	e5930070 	ldr	r0, [r3, #112]	; 0x70
878014c0:	e3800601 	orr	r0, r0, #1048576	; 0x100000
878014c4:	e5830070 	str	r0, [r3, #112]	; 0x70
878014c8:	e5930070 	ldr	r0, [r3, #112]	; 0x70
878014cc:	e3800602 	orr	r0, r0, #2097152	; 0x200000
878014d0:	e5830070 	str	r0, [r3, #112]	; 0x70
878014d4:	e5930070 	ldr	r0, [r3, #112]	; 0x70
878014d8:	e3800401 	orr	r0, r0, #16777216	; 0x1000000
878014dc:	e5830070 	str	r0, [r3, #112]	; 0x70
878014e0:	e583c080 	str	ip, [r3, #128]	; 0x80
878014e4:	e1d240ba 	ldrh	r4, [r2, #10]
878014e8:	e1d260bc 	ldrh	r6, [r2, #12]
878014ec:	e1d200be 	ldrh	r0, [r2, #14]
878014f0:	e0855004 	add	r5, r5, r4
878014f4:	e1d271b0 	ldrh	r7, [r2, #16]
878014f8:	e5835080 	str	r5, [r3, #128]	; 0x80
878014fc:	e583c090 	str	ip, [r3, #144]	; 0x90
87801500:	e080c006 	add	ip, r0, r6
87801504:	e5934090 	ldr	r4, [r3, #144]	; 0x90
87801508:	e08e000c 	add	r0, lr, ip
8780150c:	e0800007 	add	r0, r0, r7
87801510:	e1844906 	orr	r4, r4, r6, lsl #18
87801514:	e5834090 	str	r4, [r3, #144]	; 0x90
87801518:	e5934090 	ldr	r4, [r3, #144]	; 0x90
8780151c:	e1800004 	orr	r0, r0, r4
87801520:	e5830090 	str	r0, [r3, #144]	; 0x90
87801524:	e59300a0 	ldr	r0, [r3, #160]	; 0xa0
87801528:	e1811000 	orr	r1, r1, r0
8780152c:	e58310a0 	str	r1, [r3, #160]	; 0xa0
87801530:	e59310a0 	ldr	r1, [r3, #160]	; 0xa0
87801534:	e181c80c 	orr	ip, r1, ip, lsl #16
87801538:	e583c0a0 	str	ip, [r3, #160]	; 0xa0
8780153c:	e59310b0 	ldr	r1, [r3, #176]	; 0xb0
87801540:	e18e1001 	orr	r1, lr, r1
87801544:	e58310b0 	str	r1, [r3, #176]	; 0xb0
87801548:	e59310b0 	ldr	r1, [r3, #176]	; 0xb0
8780154c:	e3811701 	orr	r1, r1, #262144	; 0x40000
87801550:	e58310b0 	str	r1, [r3, #176]	; 0xb0
87801554:	e5922014 	ldr	r2, [r2, #20]
87801558:	e5832040 	str	r2, [r3, #64]	; 0x40
8780155c:	e5832050 	str	r2, [r3, #80]	; 0x50
87801560:	e8bd80f0 	pop	{r4, r5, r6, r7, pc}

87801564 <LCD_Init>:
87801564:	e92d4010 	push	{r4, lr}
87801568:	e3a04902 	mov	r4, #32768	; 0x8000
8780156c:	e340421c 	movt	r4, #540	; 0x21c
87801570:	ebffff12 	bl	878011c0 <LCD_Init_Device_Info>
87801574:	ebffff38 	bl	8780125c <LCD_IO_Init>
87801578:	ebffff75 	bl	87801354 <LCD_Open_Background_Light>
8780157c:	e5943000 	ldr	r3, [r4]
87801580:	e3a0000a 	mov	r0, #10, 0
87801584:	e3833102 	orr	r3, r3, #-2147483648	; 0x80000000
87801588:	e5843000 	str	r3, [r4]
8780158c:	eb000051 	bl	878016d8 <HightPrecisionDelayMS>
87801590:	e5943000 	ldr	r3, [r4]
87801594:	e3a02008 	mov	r2, #8, 0
87801598:	e3a01004 	mov	r1, #4, 0
8780159c:	e3a0002a 	mov	r0, #42, 0	; 0x2a
878015a0:	e3c33102 	bic	r3, r3, #-2147483648	; 0x80000000
878015a4:	e5843000 	str	r3, [r4]
878015a8:	ebfffb48 	bl	878002d0 <Clk_LCD_Init>
878015ac:	ebffff98 	bl	87801414 <LCD_Register_Config>
878015b0:	e5943000 	ldr	r3, [r4]
878015b4:	e3833001 	orr	r3, r3, #1, 0
878015b8:	e5843000 	str	r3, [r4]
878015bc:	e8bd8010 	pop	{r4, pc}

878015c0 <delay_ms>:
878015c0:	e24dd008 	sub	sp, sp, #8, 0
878015c4:	e58d0004 	str	r0, [sp, #4]
878015c8:	e59d3004 	ldr	r3, [sp, #4]
878015cc:	e3530000 	cmp	r3, #0, 0
878015d0:	e2433001 	sub	r3, r3, #1, 0
878015d4:	e58d3004 	str	r3, [sp, #4]
878015d8:	1afffffa 	bne	878015c8 <delay_ms+0x8>
878015dc:	e28dd008 	add	sp, sp, #8, 0
878015e0:	e12fff1e 	bx	lr

878015e4 <Delay>:
878015e4:	e24dd008 	sub	sp, sp, #8, 0
878015e8:	e58d0004 	str	r0, [sp, #4]
878015ec:	e59d3004 	ldr	r3, [sp, #4]
878015f0:	e3530000 	cmp	r3, #0, 0
878015f4:	e2433001 	sub	r3, r3, #1, 0
878015f8:	e58d3004 	str	r3, [sp, #4]
878015fc:	0a000004 	beq	87801614 <Delay+0x30>
87801600:	e30027ff 	movw	r2, #2047	; 0x7ff
87801604:	e3520000 	cmp	r2, #0, 0
87801608:	e2422001 	sub	r2, r2, #1, 0
8780160c:	1afffffc 	bne	87801604 <Delay+0x20>
87801610:	eafffff5 	b	878015ec <Delay+0x8>
87801614:	e28dd008 	add	sp, sp, #8, 0
87801618:	e12fff1e 	bx	lr

8780161c <Delay_Init>:
8780161c:	e3a02902 	mov	r2, #32768	; 0x8000
87801620:	e3402209 	movt	r2, #521	; 0x209
87801624:	e5921000 	ldr	r1, [r2]
87801628:	e1a03002 	mov	r3, r2
8780162c:	e3811902 	orr	r1, r1, #32768	; 0x8000
87801630:	e5821000 	str	r1, [r2]
87801634:	e5932000 	ldr	r2, [r3]
87801638:	e3120902 	tst	r2, #32768	; 0x8000
8780163c:	1afffffc 	bne	87801634 <Delay_Init+0x18>
87801640:	e5932004 	ldr	r2, [r3, #4]
87801644:	e3e01000 	mvn	r1, #0, 0
87801648:	e3c22e7f 	bic	r2, r2, #2032	; 0x7f0
8780164c:	e3c2200f 	bic	r2, r2, #15, 0
87801650:	e5832004 	str	r2, [r3, #4]
87801654:	e5932004 	ldr	r2, [r3, #4]
87801658:	e3822041 	orr	r2, r2, #65, 0	; 0x41
8780165c:	e5832004 	str	r2, [r3, #4]
87801660:	e5831010 	str	r1, [r3, #16]
87801664:	e5932000 	ldr	r2, [r3]
87801668:	e3c22603 	bic	r2, r2, #3145728	; 0x300000
8780166c:	e5832000 	str	r2, [r3]
87801670:	e5932000 	ldr	r2, [r3]
87801674:	e3c220c0 	bic	r2, r2, #192, 0	; 0xc0
87801678:	e5832000 	str	r2, [r3]
8780167c:	e5932000 	ldr	r2, [r3]
87801680:	e3822040 	orr	r2, r2, #64, 0	; 0x40
87801684:	e5832000 	str	r2, [r3]
87801688:	e5932000 	ldr	r2, [r3]
8780168c:	e3822001 	orr	r2, r2, #1, 0
87801690:	e5832000 	str	r2, [r3]
87801694:	e12fff1e 	bx	lr

87801698 <HighPrecisionDelayNS>:
87801698:	e52de004 	push	{lr}		; (str lr, [sp, #-4]!)
8780169c:	e3a0e902 	mov	lr, #32768	; 0x8000
878016a0:	e340e209 	movt	lr, #521	; 0x209
878016a4:	e3a03000 	mov	r3, #0, 0
878016a8:	e59ec024 	ldr	ip, [lr, #36]	; 0x24
878016ac:	e59e2024 	ldr	r2, [lr, #36]	; 0x24
878016b0:	e2421001 	sub	r1, r2, #1, 0
878016b4:	e15c0002 	cmp	ip, r2
878016b8:	e0811003 	add	r1, r1, r3
878016bc:	e0833002 	add	r3, r3, r2
878016c0:	3043300c 	subcc	r3, r3, ip
878016c4:	2041300c 	subcs	r3, r1, ip
878016c8:	e1530000 	cmp	r3, r0
878016cc:	e1a0c002 	mov	ip, r2
878016d0:	9afffff5 	bls	878016ac <HighPrecisionDelayNS+0x14>
878016d4:	e49df004 	pop	{pc}		; (ldr pc, [sp], #4)

878016d8 <HightPrecisionDelayMS>:
878016d8:	e3500000 	cmp	r0, #0, 0
878016dc:	012fff1e 	bxeq	lr
878016e0:	e52de004 	push	{lr}		; (str lr, [sp, #-4]!)
878016e4:	e3a0e902 	mov	lr, #32768	; 0x8000
878016e8:	e340e209 	movt	lr, #521	; 0x209
878016ec:	e3a03000 	mov	r3, #0, 0
878016f0:	e59ec024 	ldr	ip, [lr, #36]	; 0x24
878016f4:	e59e2024 	ldr	r2, [lr, #36]	; 0x24
878016f8:	e2421001 	sub	r1, r2, #1, 0
878016fc:	e152000c 	cmp	r2, ip
87801700:	e0811003 	add	r1, r1, r3
87801704:	e0823003 	add	r3, r2, r3
87801708:	8043300c 	subhi	r3, r3, ip
8780170c:	9041300c 	subls	r3, r1, ip
87801710:	e3530ffa 	cmp	r3, #1000	; 0x3e8
87801714:	e1a0c002 	mov	ip, r2
87801718:	9afffff5 	bls	878016f4 <HightPrecisionDelayMS+0x1c>
8780171c:	e2500001 	subs	r0, r0, #1, 0
87801720:	1afffff1 	bne	878016ec <HightPrecisionDelayMS+0x14>
87801724:	e49df004 	pop	{pc}		; (ldr pc, [sp], #4)

87801728 <__div64_32>:
87801728:	e92d4ff8 	push	{r3, r4, r5, r6, r7, r8, r9, sl, fp, lr}
8780172c:	e1a0a000 	mov	sl, r0
87801730:	e1c060d0 	ldrd	r6, [r0]
87801734:	e1a0b001 	mov	fp, r1
87801738:	e1a04001 	mov	r4, r1
8780173c:	e3a05000 	mov	r5, #0, 0
87801740:	e1510007 	cmp	r1, r7
87801744:	83a08000 	movhi	r8, #0, 0
87801748:	83a09000 	movhi	r9, #0, 0
8780174c:	8a000007 	bhi	87801770 <__div64_32+0x48>
87801750:	e1a00007 	mov	r0, r7
87801754:	eb0008b0 	bl	87803a1c <__udivsi3>
87801758:	e0030b90 	mul	r3, r0, fp
8780175c:	e3a02000 	mov	r2, #0, 0
87801760:	e1a08002 	mov	r8, r2
87801764:	e1a09000 	mov	r9, r0
87801768:	e0566002 	subs	r6, r6, r2
8780176c:	e0c77003 	sbc	r7, r7, r3
87801770:	e1550007 	cmp	r5, r7
87801774:	e3a02001 	mov	r2, #1, 0
87801778:	01540006 	cmpeq	r4, r6
8780177c:	33a03001 	movcc	r3, #1, 0
87801780:	23a03000 	movcs	r3, #0, 0
87801784:	e35b0000 	cmp	fp, #0, 0
87801788:	11a0b003 	movne	fp, r3
8780178c:	03a0b000 	moveq	fp, #0, 0
87801790:	e35b0000 	cmp	fp, #0, 0
87801794:	e3a03000 	mov	r3, #0, 0
87801798:	0a00000d 	beq	878017d4 <__div64_32+0xac>
8780179c:	e0944004 	adds	r4, r4, r4
878017a0:	e0a55005 	adc	r5, r5, r5
878017a4:	e0922002 	adds	r2, r2, r2
878017a8:	e0a33003 	adc	r3, r3, r3
878017ac:	e3540001 	cmp	r4, #1, 0
878017b0:	e2d51000 	sbcs	r1, r5, #0, 0
878017b4:	a3a01001 	movge	r1, #1, 0
878017b8:	b3a01000 	movlt	r1, #0, 0
878017bc:	e1550007 	cmp	r5, r7
878017c0:	01540006 	cmpeq	r4, r6
878017c4:	23a01000 	movcs	r1, #0, 0
878017c8:	32011001 	andcc	r1, r1, #1, 0
878017cc:	e3510000 	cmp	r1, #0, 0
878017d0:	1afffff1 	bne	8780179c <__div64_32+0x74>
878017d4:	e1570005 	cmp	r7, r5
878017d8:	01560004 	cmpeq	r6, r4
878017dc:	3a000003 	bcc	878017f0 <__div64_32+0xc8>
878017e0:	e0566004 	subs	r6, r6, r4
878017e4:	e0c77005 	sbc	r7, r7, r5
878017e8:	e0988002 	adds	r8, r8, r2
878017ec:	e0a99003 	adc	r9, r9, r3
878017f0:	e1a020a2 	lsr	r2, r2, #1
878017f4:	e1a040a4 	lsr	r4, r4, #1
878017f8:	e1822f83 	orr	r2, r2, r3, lsl #31
878017fc:	e1a030a3 	lsr	r3, r3, #1
87801800:	e1844f85 	orr	r4, r4, r5, lsl #31
87801804:	e1a050a5 	lsr	r5, r5, #1
87801808:	e1921003 	orrs	r1, r2, r3
8780180c:	1afffff0 	bne	878017d4 <__div64_32+0xac>
87801810:	e1ca80f0 	strd	r8, [sl]
87801814:	e1a00006 	mov	r0, r6
87801818:	e8bd8ff8 	pop	{r3, r4, r5, r6, r7, r8, r9, sl, fp, pc}

8780181c <__muldi3>:
8780181c:	e1a0c000 	mov	ip, r0
87801820:	e92d4070 	push	{r4, r5, r6, lr}
87801824:	e1a04820 	lsr	r4, r0, #16
87801828:	e1a0e822 	lsr	lr, r2, #16
8780182c:	e1c05804 	bic	r5, r0, r4, lsl #16
87801830:	e1c2680e 	bic	r6, r2, lr, lsl #16
87801834:	e0000695 	mul	r0, r5, r6
87801838:	e0060694 	mul	r6, r4, r6
8780183c:	e005059e 	mul	r5, lr, r5
87801840:	e00e0e94 	mul	lr, r4, lr
87801844:	e0965005 	adds	r5, r6, r5
87801848:	228ee801 	addcs	lr, lr, #65536	; 0x10000
8780184c:	e0900805 	adds	r0, r0, r5, lsl #16
87801850:	e0aee825 	adc	lr, lr, r5, lsr #16
87801854:	e023ec93 	mla	r3, r3, ip, lr
87801858:	e0213192 	mla	r1, r2, r1, r3
8780185c:	e8bd8070 	pop	{r4, r5, r6, pc}

87801860 <printf>:
87801860:	e92d000f 	push	{r0, r1, r2, r3}
87801864:	e3040414 	movw	r0, #17428	; 0x4414
87801868:	e92d41f0 	push	{r4, r5, r6, r7, r8, lr}
8780186c:	e3480780 	movt	r0, #34688	; 0x8780
87801870:	e1a05000 	mov	r5, r0
87801874:	e28d201c 	add	r2, sp, #28, 0
87801878:	e1a06005 	mov	r6, r5
8780187c:	e3a04000 	mov	r4, #0, 0
87801880:	e59d1018 	ldr	r1, [sp, #24]
87801884:	eb00069b 	bl	878032f8 <vsprintf>
87801888:	e1a07000 	mov	r7, r0
8780188c:	ea000001 	b	87801898 <printf+0x38>
87801890:	e4d50001 	ldrb	r0, [r5], #1
87801894:	ebfffdee 	bl	87801054 <putc>
87801898:	e1a00006 	mov	r0, r6
8780189c:	eb0000c9 	bl	87801bc8 <strlen>
878018a0:	e1500004 	cmp	r0, r4
878018a4:	e2844001 	add	r4, r4, #1, 0
878018a8:	8afffff8 	bhi	87801890 <printf+0x30>
878018ac:	e1a00007 	mov	r0, r7
878018b0:	e8bd41f0 	pop	{r4, r5, r6, r7, r8, lr}
878018b4:	e28dd010 	add	sp, sp, #16, 0
878018b8:	e12fff1e 	bx	lr

878018bc <scanf>:
878018bc:	e92d000f 	push	{r0, r1, r2, r3}
878018c0:	e92d4070 	push	{r4, r5, r6, lr}
878018c4:	e3a05000 	mov	r5, #0, 0
878018c8:	e59f6050 	ldr	r6, [pc, #80]	; 87801920 <scanf+0x64>
878018cc:	ea000001 	b	878018d8 <scanf+0x1c>
878018d0:	e2855001 	add	r5, r5, #1, 0
878018d4:	e4c64001 	strb	r4, [r6], #1
878018d8:	ebfffdde 	bl	87801058 <getc>
878018dc:	e1a04000 	mov	r4, r0
878018e0:	ebfffddb 	bl	87801054 <putc>
878018e4:	e354000a 	cmp	r4, #10, 0
878018e8:	1354000d 	cmpne	r4, #13, 0
878018ec:	1afffff7 	bne	878018d0 <scanf+0x14>
878018f0:	e3040414 	movw	r0, #17428	; 0x4414
878018f4:	e3a03000 	mov	r3, #0, 0
878018f8:	e3480780 	movt	r0, #34688	; 0x8780
878018fc:	e28d2014 	add	r2, sp, #20, 0
87801900:	e0805005 	add	r5, r0, r5
87801904:	e59d1010 	ldr	r1, [sp, #16]
87801908:	e2800b01 	add	r0, r0, #1024	; 0x400
8780190c:	e5c53400 	strb	r3, [r5, #1024]	; 0x400
87801910:	eb000685 	bl	8780332c <vsscanf>
87801914:	e8bd4070 	pop	{r4, r5, r6, lr}
87801918:	e28dd010 	add	sp, sp, #16, 0
8780191c:	e12fff1e 	bx	lr
87801920:	87804814 	usada8hi	r0, r4, r8, r4

87801924 <strnicmp>:
87801924:	e3520000 	cmp	r2, #0, 0
87801928:	0a00001f 	beq	878019ac <strnicmp+0x88>
8780192c:	e92d40f0 	push	{r4, r5, r6, r7, lr}
87801930:	e303ee10 	movw	lr, #15888	; 0x3e10
87801934:	e240c001 	sub	ip, r0, #1, 0
87801938:	e0817002 	add	r7, r1, r2
8780193c:	e348e780 	movt	lr, #34688	; 0x8780
87801940:	ea000006 	b	87801960 <strnicmp+0x3c>
87801944:	e3530000 	cmp	r3, #0, 0
87801948:	e6ef0076 	uxtb	r0, r6
8780194c:	1a000014 	bne	878019a4 <strnicmp+0x80>
87801950:	e1520000 	cmp	r2, r0
87801954:	1a00001a 	bne	878019c4 <strnicmp+0xa0>
87801958:	e1510007 	cmp	r1, r7
8780195c:	0a000016 	beq	878019bc <strnicmp+0x98>
87801960:	e5fc0001 	ldrb	r0, [ip, #1]!
87801964:	e4d12001 	ldrb	r2, [r1], #1
87801968:	e3500000 	cmp	r0, #0, 0
8780196c:	0a000010 	beq	878019b4 <strnicmp+0x90>
87801970:	e3520000 	cmp	r2, #0, 0
87801974:	08bd80f0 	popeq	{r4, r5, r6, r7, pc}
87801978:	e1500002 	cmp	r0, r2
8780197c:	0afffff5 	beq	87801958 <strnicmp+0x34>
87801980:	e7de4000 	ldrb	r4, [lr, r0]
87801984:	e2825020 	add	r5, r2, #32, 0
87801988:	e7de3002 	ldrb	r3, [lr, r2]
8780198c:	e2806020 	add	r6, r0, #32, 0
87801990:	e3140001 	tst	r4, #1, 0
87801994:	e2033001 	and	r3, r3, #1, 0
87801998:	1affffe9 	bne	87801944 <strnicmp+0x20>
8780199c:	e3530000 	cmp	r3, #0, 0
878019a0:	0a000007 	beq	878019c4 <strnicmp+0xa0>
878019a4:	e6ef2075 	uxtb	r2, r5
878019a8:	eaffffe8 	b	87801950 <strnicmp+0x2c>
878019ac:	e1a00002 	mov	r0, r2
878019b0:	e12fff1e 	bx	lr
878019b4:	e2620000 	rsb	r0, r2, #0, 0
878019b8:	e8bd80f0 	pop	{r4, r5, r6, r7, pc}
878019bc:	e3a00000 	mov	r0, #0, 0
878019c0:	e8bd80f0 	pop	{r4, r5, r6, r7, pc}
878019c4:	e0400002 	sub	r0, r0, r2
878019c8:	e8bd80f0 	pop	{r4, r5, r6, r7, pc}

878019cc <strcpy>:
878019cc:	e2402001 	sub	r2, r0, #1, 0
878019d0:	e4d13001 	ldrb	r3, [r1], #1
878019d4:	e3530000 	cmp	r3, #0, 0
878019d8:	e5e23001 	strb	r3, [r2, #1]!
878019dc:	1afffffb 	bne	878019d0 <strcpy+0x4>
878019e0:	e12fff1e 	bx	lr

878019e4 <strncpy>:
878019e4:	e0812002 	add	r2, r1, r2
878019e8:	e240c001 	sub	ip, r0, #1, 0
878019ec:	e1510002 	cmp	r1, r2
878019f0:	012fff1e 	bxeq	lr
878019f4:	e4d13001 	ldrb	r3, [r1], #1
878019f8:	e3530000 	cmp	r3, #0, 0
878019fc:	e5ec3001 	strb	r3, [ip, #1]!
87801a00:	012fff1e 	bxeq	lr
87801a04:	e1510002 	cmp	r1, r2
87801a08:	1afffff9 	bne	878019f4 <strncpy+0x10>
87801a0c:	e12fff1e 	bx	lr

87801a10 <strcat>:
87801a10:	e5d03000 	ldrb	r3, [r0]
87801a14:	e3530000 	cmp	r3, #0, 0
87801a18:	e1a03000 	mov	r3, r0
87801a1c:	0a000002 	beq	87801a2c <strcat+0x1c>
87801a20:	e5f32001 	ldrb	r2, [r3, #1]!
87801a24:	e3520000 	cmp	r2, #0, 0
87801a28:	1afffffc 	bne	87801a20 <strcat+0x10>
87801a2c:	e2433001 	sub	r3, r3, #1, 0
87801a30:	e4d12001 	ldrb	r2, [r1], #1
87801a34:	e3520000 	cmp	r2, #0, 0
87801a38:	e5e32001 	strb	r2, [r3, #1]!
87801a3c:	1afffffb 	bne	87801a30 <strcat+0x20>
87801a40:	e12fff1e 	bx	lr

87801a44 <strncat>:
87801a44:	e3520000 	cmp	r2, #0, 0
87801a48:	012fff1e 	bxeq	lr
87801a4c:	e5d03000 	ldrb	r3, [r0]
87801a50:	e3530000 	cmp	r3, #0, 0
87801a54:	e1a03000 	mov	r3, r0
87801a58:	0a000002 	beq	87801a68 <strncat+0x24>
87801a5c:	e5f3c001 	ldrb	ip, [r3, #1]!
87801a60:	e35c0000 	cmp	ip, #0, 0
87801a64:	1afffffc 	bne	87801a5c <strncat+0x18>
87801a68:	e2411001 	sub	r1, r1, #1, 0
87801a6c:	e0832002 	add	r2, r3, r2
87801a70:	e5f1c001 	ldrb	ip, [r1, #1]!
87801a74:	e35c0000 	cmp	ip, #0, 0
87801a78:	e4c3c001 	strb	ip, [r3], #1
87801a7c:	012fff1e 	bxeq	lr
87801a80:	e1530002 	cmp	r3, r2
87801a84:	1afffff9 	bne	87801a70 <strncat+0x2c>
87801a88:	e3a02000 	mov	r2, #0, 0
87801a8c:	e5c32000 	strb	r2, [r3]
87801a90:	e12fff1e 	bx	lr

87801a94 <strcmp>:
87801a94:	e2402001 	sub	r2, r0, #1, 0
87801a98:	ea000001 	b	87801aa4 <strcmp+0x10>
87801a9c:	e3500000 	cmp	r0, #0, 0
87801aa0:	012fff1e 	bxeq	lr
87801aa4:	e5f20001 	ldrb	r0, [r2, #1]!
87801aa8:	e4d13001 	ldrb	r3, [r1], #1
87801aac:	e0403003 	sub	r3, r0, r3
87801ab0:	e6af3073 	sxtb	r3, r3
87801ab4:	e3530000 	cmp	r3, #0, 0
87801ab8:	0afffff7 	beq	87801a9c <strcmp+0x8>
87801abc:	e1a00003 	mov	r0, r3
87801ac0:	e12fff1e 	bx	lr

87801ac4 <strncmp>:
87801ac4:	e3520000 	cmp	r2, #0, 0
87801ac8:	0a000019 	beq	87801b34 <strncmp+0x70>
87801acc:	e1a0c001 	mov	ip, r1
87801ad0:	e52de004 	push	{lr}		; (str lr, [sp, #-4]!)
87801ad4:	e5d03000 	ldrb	r3, [r0]
87801ad8:	e4dce001 	ldrb	lr, [ip], #1
87801adc:	e043e00e 	sub	lr, r3, lr
87801ae0:	e6afe07e 	sxtb	lr, lr
87801ae4:	e35e0000 	cmp	lr, #0, 0
87801ae8:	1a000013 	bne	87801b3c <strncmp+0x78>
87801aec:	e3530000 	cmp	r3, #0, 0
87801af0:	0a00000b 	beq	87801b24 <strncmp+0x60>
87801af4:	e0811002 	add	r1, r1, r2
87801af8:	ea000007 	b	87801b1c <strncmp+0x58>
87801afc:	e5f03001 	ldrb	r3, [r0, #1]!
87801b00:	e4dc2001 	ldrb	r2, [ip], #1
87801b04:	e0432002 	sub	r2, r3, r2
87801b08:	e6af2072 	sxtb	r2, r2
87801b0c:	e3520000 	cmp	r2, #0, 0
87801b10:	1a000005 	bne	87801b2c <strncmp+0x68>
87801b14:	e3530000 	cmp	r3, #0, 0
87801b18:	0a000001 	beq	87801b24 <strncmp+0x60>
87801b1c:	e151000c 	cmp	r1, ip
87801b20:	1afffff5 	bne	87801afc <strncmp+0x38>
87801b24:	e3a00000 	mov	r0, #0, 0
87801b28:	e49df004 	pop	{pc}		; (ldr pc, [sp], #4)
87801b2c:	e1a00002 	mov	r0, r2
87801b30:	e49df004 	pop	{pc}		; (ldr pc, [sp], #4)
87801b34:	e1a00002 	mov	r0, r2
87801b38:	e12fff1e 	bx	lr
87801b3c:	e1a0000e 	mov	r0, lr
87801b40:	e49df004 	pop	{pc}		; (ldr pc, [sp], #4)

87801b44 <strchr>:
87801b44:	e5d03000 	ldrb	r3, [r0]
87801b48:	e6ef1071 	uxtb	r1, r1
87801b4c:	e1530001 	cmp	r3, r1
87801b50:	1a000003 	bne	87801b64 <strchr+0x20>
87801b54:	e12fff1e 	bx	lr
87801b58:	e5f03001 	ldrb	r3, [r0, #1]!
87801b5c:	e1530001 	cmp	r3, r1
87801b60:	012fff1e 	bxeq	lr
87801b64:	e3530000 	cmp	r3, #0, 0
87801b68:	1afffffa 	bne	87801b58 <strchr+0x14>
87801b6c:	e1a00003 	mov	r0, r3
87801b70:	e12fff1e 	bx	lr

87801b74 <strrchr>:
87801b74:	e5d03000 	ldrb	r3, [r0]
87801b78:	e3530000 	cmp	r3, #0, 0
87801b7c:	e1a03000 	mov	r3, r0
87801b80:	0a000002 	beq	87801b90 <strrchr+0x1c>
87801b84:	e5f32001 	ldrb	r2, [r3, #1]!
87801b88:	e3520000 	cmp	r2, #0, 0
87801b8c:	1afffffc 	bne	87801b84 <strrchr+0x10>
87801b90:	e6ef1071 	uxtb	r1, r1
87801b94:	e3a02000 	mov	r2, #0, 0
87801b98:	ea000003 	b	87801bac <strrchr+0x38>
87801b9c:	e2433001 	sub	r3, r3, #1, 0
87801ba0:	e1500003 	cmp	r0, r3
87801ba4:	8a000004 	bhi	87801bbc <strrchr+0x48>
87801ba8:	e5d32000 	ldrb	r2, [r3]
87801bac:	e1520001 	cmp	r2, r1
87801bb0:	1afffff9 	bne	87801b9c <strrchr+0x28>
87801bb4:	e1a00003 	mov	r0, r3
87801bb8:	e12fff1e 	bx	lr
87801bbc:	e3a03000 	mov	r3, #0, 0
87801bc0:	e1a00003 	mov	r0, r3
87801bc4:	e12fff1e 	bx	lr

87801bc8 <strlen>:
87801bc8:	e5d03000 	ldrb	r3, [r0]
87801bcc:	e3530000 	cmp	r3, #0, 0
87801bd0:	0a000005 	beq	87801bec <strlen+0x24>
87801bd4:	e1a03000 	mov	r3, r0
87801bd8:	e5f32001 	ldrb	r2, [r3, #1]!
87801bdc:	e3520000 	cmp	r2, #0, 0
87801be0:	1afffffc 	bne	87801bd8 <strlen+0x10>
87801be4:	e0430000 	sub	r0, r3, r0
87801be8:	e12fff1e 	bx	lr
87801bec:	e1a00003 	mov	r0, r3
87801bf0:	e12fff1e 	bx	lr

87801bf4 <strnlen>:
87801bf4:	e3510000 	cmp	r1, #0, 0
87801bf8:	0a000010 	beq	87801c40 <strnlen+0x4c>
87801bfc:	e5d02000 	ldrb	r2, [r0]
87801c00:	e3520000 	cmp	r2, #0, 0
87801c04:	0a00000f 	beq	87801c48 <strnlen+0x54>
87801c08:	e0801001 	add	r1, r0, r1
87801c0c:	e2803001 	add	r3, r0, #1, 0
87801c10:	ea000002 	b	87801c20 <strnlen+0x2c>
87801c14:	e5d2c000 	ldrb	ip, [r2]
87801c18:	e35c0000 	cmp	ip, #0, 0
87801c1c:	0a000005 	beq	87801c38 <strnlen+0x44>
87801c20:	e1510003 	cmp	r1, r3
87801c24:	e1a02003 	mov	r2, r3
87801c28:	e2833001 	add	r3, r3, #1, 0
87801c2c:	1afffff8 	bne	87801c14 <strnlen+0x20>
87801c30:	e0410000 	sub	r0, r1, r0
87801c34:	e12fff1e 	bx	lr
87801c38:	e0420000 	sub	r0, r2, r0
87801c3c:	e12fff1e 	bx	lr
87801c40:	e1a00001 	mov	r0, r1
87801c44:	e12fff1e 	bx	lr
87801c48:	e1a00002 	mov	r0, r2
87801c4c:	e12fff1e 	bx	lr

87801c50 <strspn>:
87801c50:	e5d0c000 	ldrb	ip, [r0]
87801c54:	e35c0000 	cmp	ip, #0, 0
87801c58:	0a000014 	beq	87801cb0 <strspn+0x60>
87801c5c:	e92d4010 	push	{r4, lr}
87801c60:	e1a0e000 	mov	lr, r0
87801c64:	e5d14000 	ldrb	r4, [r1]
87801c68:	e3a00000 	mov	r0, #0, 0
87801c6c:	e3540000 	cmp	r4, #0, 0
87801c70:	08bd8010 	popeq	{r4, pc}
87801c74:	e154000c 	cmp	r4, ip
87801c78:	0a000005 	beq	87801c94 <strspn+0x44>
87801c7c:	e1a02001 	mov	r2, r1
87801c80:	e5f23001 	ldrb	r3, [r2, #1]!
87801c84:	e3530000 	cmp	r3, #0, 0
87801c88:	08bd8010 	popeq	{r4, pc}
87801c8c:	e153000c 	cmp	r3, ip
87801c90:	1afffffa 	bne	87801c80 <strspn+0x30>
87801c94:	e5fec001 	ldrb	ip, [lr, #1]!
87801c98:	e2800001 	add	r0, r0, #1, 0
87801c9c:	e35c0000 	cmp	ip, #0, 0
87801ca0:	08bd8010 	popeq	{r4, pc}
87801ca4:	e3540000 	cmp	r4, #0, 0
87801ca8:	1afffff1 	bne	87801c74 <strspn+0x24>
87801cac:	e8bd8010 	pop	{r4, pc}
87801cb0:	e1a0000c 	mov	r0, ip
87801cb4:	e12fff1e 	bx	lr

87801cb8 <strpbrk>:
87801cb8:	e5d0c000 	ldrb	ip, [r0]
87801cbc:	e35c0000 	cmp	ip, #0, 0
87801cc0:	0a000011 	beq	87801d0c <strpbrk+0x54>
87801cc4:	e52de004 	push	{lr}		; (str lr, [sp, #-4]!)
87801cc8:	e5d1e000 	ldrb	lr, [r1]
87801ccc:	e35e0000 	cmp	lr, #0, 0
87801cd0:	0a000008 	beq	87801cf8 <strpbrk+0x40>
87801cd4:	e15e000c 	cmp	lr, ip
87801cd8:	049df004 	popeq	{pc}		; (ldreq pc, [sp], #4)
87801cdc:	e1a02001 	mov	r2, r1
87801ce0:	ea000001 	b	87801cec <strpbrk+0x34>
87801ce4:	e153000c 	cmp	r3, ip
87801ce8:	049df004 	popeq	{pc}		; (ldreq pc, [sp], #4)
87801cec:	e5f23001 	ldrb	r3, [r2, #1]!
87801cf0:	e3530000 	cmp	r3, #0, 0
87801cf4:	1afffffa 	bne	87801ce4 <strpbrk+0x2c>
87801cf8:	e5f0c001 	ldrb	ip, [r0, #1]!
87801cfc:	e35c0000 	cmp	ip, #0, 0
87801d00:	1afffff1 	bne	87801ccc <strpbrk+0x14>
87801d04:	e1a0000c 	mov	r0, ip
87801d08:	e49df004 	pop	{pc}		; (ldr pc, [sp], #4)
87801d0c:	e1a0000c 	mov	r0, ip
87801d10:	e12fff1e 	bx	lr

87801d14 <strtok>:
87801d14:	e3500000 	cmp	r0, #0, 0
87801d18:	e92d4070 	push	{r4, r5, r6, lr}
87801d1c:	e3046c34 	movw	r6, #19508	; 0x4c34
87801d20:	e3486780 	movt	r6, #34688	; 0x8780
87801d24:	0a000030 	beq	87801dec <strtok+0xd8>
87801d28:	e5d0c000 	ldrb	ip, [r0]
87801d2c:	e35c0000 	cmp	ip, #0, 0
87801d30:	0a000031 	beq	87801dfc <strtok+0xe8>
87801d34:	e5d1e000 	ldrb	lr, [r1]
87801d38:	e1a05000 	mov	r5, r0
87801d3c:	e3a04000 	mov	r4, #0, 0
87801d40:	e35e0000 	cmp	lr, #0, 0
87801d44:	0a000008 	beq	87801d6c <strtok+0x58>
87801d48:	e15c000e 	cmp	ip, lr
87801d4c:	0a00001b 	beq	87801dc0 <strtok+0xac>
87801d50:	e1a02001 	mov	r2, r1
87801d54:	ea000001 	b	87801d60 <strtok+0x4c>
87801d58:	e153000c 	cmp	r3, ip
87801d5c:	0a000017 	beq	87801dc0 <strtok+0xac>
87801d60:	e5f23001 	ldrb	r3, [r2, #1]!
87801d64:	e3530000 	cmp	r3, #0, 0
87801d68:	1afffffa 	bne	87801d58 <strtok+0x44>
87801d6c:	e7d0c004 	ldrb	ip, [r0, r4]
87801d70:	e0800004 	add	r0, r0, r4
87801d74:	e35c0000 	cmp	ip, #0, 0
87801d78:	11a04000 	movne	r4, r0
87801d7c:	0a00001e 	beq	87801dfc <strtok+0xe8>
87801d80:	e35e0000 	cmp	lr, #0, 0
87801d84:	0a000008 	beq	87801dac <strtok+0x98>
87801d88:	e15c000e 	cmp	ip, lr
87801d8c:	0a000010 	beq	87801dd4 <strtok+0xc0>
87801d90:	e1a02001 	mov	r2, r1
87801d94:	ea000001 	b	87801da0 <strtok+0x8c>
87801d98:	e153000c 	cmp	r3, ip
87801d9c:	0a00000c 	beq	87801dd4 <strtok+0xc0>
87801da0:	e5f23001 	ldrb	r3, [r2, #1]!
87801da4:	e3530000 	cmp	r3, #0, 0
87801da8:	1afffffa 	bne	87801d98 <strtok+0x84>
87801dac:	e5f4c001 	ldrb	ip, [r4, #1]!
87801db0:	e35c0000 	cmp	ip, #0, 0
87801db4:	1afffff1 	bne	87801d80 <strtok+0x6c>
87801db8:	e1a0400c 	mov	r4, ip
87801dbc:	ea000008 	b	87801de4 <strtok+0xd0>
87801dc0:	e5f5c001 	ldrb	ip, [r5, #1]!
87801dc4:	e2844001 	add	r4, r4, #1, 0
87801dc8:	e35c0000 	cmp	ip, #0, 0
87801dcc:	1affffdb 	bne	87801d40 <strtok+0x2c>
87801dd0:	eaffffe5 	b	87801d6c <strtok+0x58>
87801dd4:	e5d43000 	ldrb	r3, [r4]
87801dd8:	e3530000 	cmp	r3, #0, 0
87801ddc:	13a03000 	movne	r3, #0, 0
87801de0:	14c43001 	strbne	r3, [r4], #1
87801de4:	e5864000 	str	r4, [r6]
87801de8:	e8bd8070 	pop	{r4, r5, r6, pc}
87801dec:	e5960000 	ldr	r0, [r6]
87801df0:	e3500000 	cmp	r0, #0, 0
87801df4:	1affffcb 	bne	87801d28 <strtok+0x14>
87801df8:	e8bd8070 	pop	{r4, r5, r6, pc}
87801dfc:	e3a00000 	mov	r0, #0, 0
87801e00:	e5860000 	str	r0, [r6]
87801e04:	e8bd8070 	pop	{r4, r5, r6, pc}

87801e08 <strsep>:
87801e08:	e92d4030 	push	{r4, r5, lr}
87801e0c:	e1a05000 	mov	r5, r0
87801e10:	e5900000 	ldr	r0, [r0]
87801e14:	e3500000 	cmp	r0, #0, 0
87801e18:	08bd8030 	popeq	{r4, r5, pc}
87801e1c:	e5d0c000 	ldrb	ip, [r0]
87801e20:	e35c0000 	cmp	ip, #0, 0
87801e24:	0a00000f 	beq	87801e68 <strsep+0x60>
87801e28:	e5d14000 	ldrb	r4, [r1]
87801e2c:	e1a0e000 	mov	lr, r0
87801e30:	e3540000 	cmp	r4, #0, 0
87801e34:	0a000008 	beq	87801e5c <strsep+0x54>
87801e38:	e154000c 	cmp	r4, ip
87801e3c:	0a00000b 	beq	87801e70 <strsep+0x68>
87801e40:	e1a02001 	mov	r2, r1
87801e44:	ea000001 	b	87801e50 <strsep+0x48>
87801e48:	e153000c 	cmp	r3, ip
87801e4c:	0a000007 	beq	87801e70 <strsep+0x68>
87801e50:	e5f23001 	ldrb	r3, [r2, #1]!
87801e54:	e3530000 	cmp	r3, #0, 0
87801e58:	1afffffa 	bne	87801e48 <strsep+0x40>
87801e5c:	e5fec001 	ldrb	ip, [lr, #1]!
87801e60:	e35c0000 	cmp	ip, #0, 0
87801e64:	1afffff1 	bne	87801e30 <strsep+0x28>
87801e68:	e585c000 	str	ip, [r5]
87801e6c:	e8bd8030 	pop	{r4, r5, pc}
87801e70:	e1a0c00e 	mov	ip, lr
87801e74:	e3a03000 	mov	r3, #0, 0
87801e78:	e4cc3001 	strb	r3, [ip], #1
87801e7c:	e585c000 	str	ip, [r5]
87801e80:	e8bd8030 	pop	{r4, r5, pc}

87801e84 <memset>:
87801e84:	e3520000 	cmp	r2, #0, 0
87801e88:	012fff1e 	bxeq	lr
87801e8c:	e6ef1071 	uxtb	r1, r1
87801e90:	e0802002 	add	r2, r0, r2
87801e94:	e1a03000 	mov	r3, r0
87801e98:	e4c31001 	strb	r1, [r3], #1
87801e9c:	e1530002 	cmp	r3, r2
87801ea0:	1afffffc 	bne	87801e98 <memset+0x14>
87801ea4:	e12fff1e 	bx	lr

87801ea8 <bcopy>:
87801ea8:	e3520000 	cmp	r2, #0, 0
87801eac:	012fff1e 	bxeq	lr
87801eb0:	e2411001 	sub	r1, r1, #1, 0
87801eb4:	e0802002 	add	r2, r0, r2
87801eb8:	e4d03001 	ldrb	r3, [r0], #1
87801ebc:	e1500002 	cmp	r0, r2
87801ec0:	e5e13001 	strb	r3, [r1, #1]!
87801ec4:	1afffffb 	bne	87801eb8 <bcopy+0x10>
87801ec8:	e12fff1e 	bx	lr

87801ecc <memcpy>:
87801ecc:	e3520000 	cmp	r2, #0, 0
87801ed0:	012fff1e 	bxeq	lr
87801ed4:	e0812002 	add	r2, r1, r2
87801ed8:	e2403001 	sub	r3, r0, #1, 0
87801edc:	e4d1c001 	ldrb	ip, [r1], #1
87801ee0:	e1510002 	cmp	r1, r2
87801ee4:	e5e3c001 	strb	ip, [r3, #1]!
87801ee8:	1afffffb 	bne	87801edc <memcpy+0x10>
87801eec:	e12fff1e 	bx	lr

87801ef0 <memmove>:
87801ef0:	e1500001 	cmp	r0, r1
87801ef4:	8a000008 	bhi	87801f1c <memmove+0x2c>
87801ef8:	e3520000 	cmp	r2, #0, 0
87801efc:	012fff1e 	bxeq	lr
87801f00:	e0812002 	add	r2, r1, r2
87801f04:	e2403001 	sub	r3, r0, #1, 0
87801f08:	e4d1c001 	ldrb	ip, [r1], #1
87801f0c:	e1520001 	cmp	r2, r1
87801f10:	e5e3c001 	strb	ip, [r3, #1]!
87801f14:	1afffffb 	bne	87801f08 <memmove+0x18>
87801f18:	e12fff1e 	bx	lr
87801f1c:	e3520000 	cmp	r2, #0, 0
87801f20:	e0803002 	add	r3, r0, r2
87801f24:	e0812002 	add	r2, r1, r2
87801f28:	012fff1e 	bxeq	lr
87801f2c:	e572c001 	ldrb	ip, [r2, #-1]!
87801f30:	e1510002 	cmp	r1, r2
87801f34:	e563c001 	strb	ip, [r3, #-1]!
87801f38:	1afffffb 	bne	87801f2c <memmove+0x3c>
87801f3c:	e12fff1e 	bx	lr

87801f40 <memcmp>:
87801f40:	e3520000 	cmp	r2, #0, 0
87801f44:	0a00000f 	beq	87801f88 <memcmp+0x48>
87801f48:	e1a0c000 	mov	ip, r0
87801f4c:	e5d13000 	ldrb	r3, [r1]
87801f50:	e5d00000 	ldrb	r0, [r0]
87801f54:	e0500003 	subs	r0, r0, r3
87801f58:	112fff1e 	bxne	lr
87801f5c:	e2422001 	sub	r2, r2, #1, 0
87801f60:	e52de004 	push	{lr}		; (str lr, [sp, #-4]!)
87801f64:	e081e002 	add	lr, r1, r2
87801f68:	e151000e 	cmp	r1, lr
87801f6c:	049df004 	popeq	{pc}		; (ldreq pc, [sp], #4)
87801f70:	e5fc3001 	ldrb	r3, [ip, #1]!
87801f74:	e5f12001 	ldrb	r2, [r1, #1]!
87801f78:	e0533002 	subs	r3, r3, r2
87801f7c:	0afffff9 	beq	87801f68 <memcmp+0x28>
87801f80:	e1a00003 	mov	r0, r3
87801f84:	e49df004 	pop	{pc}		; (ldr pc, [sp], #4)
87801f88:	e1a00002 	mov	r0, r2
87801f8c:	e12fff1e 	bx	lr

87801f90 <memscan>:
87801f90:	e3520000 	cmp	r2, #0, 0
87801f94:	012fff1e 	bxeq	lr
87801f98:	e5d03000 	ldrb	r3, [r0]
87801f9c:	e1510003 	cmp	r1, r3
87801fa0:	012fff1e 	bxeq	lr
87801fa4:	e0802002 	add	r2, r0, r2
87801fa8:	e2803001 	add	r3, r0, #1, 0
87801fac:	e1530002 	cmp	r3, r2
87801fb0:	e1a00003 	mov	r0, r3
87801fb4:	e2833001 	add	r3, r3, #1, 0
87801fb8:	012fff1e 	bxeq	lr
87801fbc:	e5d0c000 	ldrb	ip, [r0]
87801fc0:	e15c0001 	cmp	ip, r1
87801fc4:	1afffff8 	bne	87801fac <memscan+0x1c>
87801fc8:	e12fff1e 	bx	lr

87801fcc <strstr>:
87801fcc:	e92d41f0 	push	{r4, r5, r6, r7, r8, lr}
87801fd0:	e5d17000 	ldrb	r7, [r1]
87801fd4:	e3570000 	cmp	r7, #0, 0
87801fd8:	08bd81f0 	popeq	{r4, r5, r6, r7, r8, pc}
87801fdc:	e1a06001 	mov	r6, r1
87801fe0:	e5f63001 	ldrb	r3, [r6, #1]!
87801fe4:	e3530000 	cmp	r3, #0, 0
87801fe8:	1afffffc 	bne	87801fe0 <strstr+0x14>
87801fec:	e0566001 	subs	r6, r6, r1
87801ff0:	08bd81f0 	popeq	{r4, r5, r6, r7, r8, pc}
87801ff4:	e5d02000 	ldrb	r2, [r0]
87801ff8:	e3520000 	cmp	r2, #0, 0
87801ffc:	0a00001c 	beq	87802074 <strstr+0xa8>
87802000:	e1a03000 	mov	r3, r0
87802004:	e5f3c001 	ldrb	ip, [r3, #1]!
87802008:	e35c0000 	cmp	ip, #0, 0
8780200c:	1afffffc 	bne	87802004 <strstr+0x38>
87802010:	e0433000 	sub	r3, r3, r0
87802014:	e1560003 	cmp	r6, r3
87802018:	ca000013 	bgt	8780206c <strstr+0xa0>
8780201c:	e2404001 	sub	r4, r0, #1, 0
87802020:	e1a05000 	mov	r5, r0
87802024:	e0838004 	add	r8, r3, r4
87802028:	e0864004 	add	r4, r6, r4
8780202c:	e1a00005 	mov	r0, r5
87802030:	e1a0e001 	mov	lr, r1
87802034:	e1a03005 	mov	r3, r5
87802038:	e1a0c007 	mov	ip, r7
8780203c:	ea000003 	b	87802050 <strstr+0x84>
87802040:	e1530004 	cmp	r3, r4
87802044:	08bd81f0 	popeq	{r4, r5, r6, r7, r8, pc}
87802048:	e5f32001 	ldrb	r2, [r3, #1]!
8780204c:	e5fec001 	ldrb	ip, [lr, #1]!
87802050:	e152000c 	cmp	r2, ip
87802054:	0afffff9 	beq	87802040 <strstr+0x74>
87802058:	e0483005 	sub	r3, r8, r5
8780205c:	e2844001 	add	r4, r4, #1, 0
87802060:	e1560003 	cmp	r6, r3
87802064:	d5f52001 	ldrble	r2, [r5, #1]!
87802068:	daffffef 	ble	8780202c <strstr+0x60>
8780206c:	e3a00000 	mov	r0, #0, 0
87802070:	e8bd81f0 	pop	{r4, r5, r6, r7, r8, pc}
87802074:	e1a03002 	mov	r3, r2
87802078:	eaffffe5 	b	87802014 <strstr+0x48>

8780207c <memchr>:
8780207c:	e6ef1071 	uxtb	r1, r1
87802080:	e0802002 	add	r2, r0, r2
87802084:	ea000003 	b	87802098 <memchr+0x1c>
87802088:	e4d3c001 	ldrb	ip, [r3], #1
8780208c:	e15c0001 	cmp	ip, r1
87802090:	012fff1e 	bxeq	lr
87802094:	e1a00003 	mov	r0, r3
87802098:	e1500002 	cmp	r0, r2
8780209c:	e1a03000 	mov	r3, r0
878020a0:	1afffff8 	bne	87802088 <memchr+0xc>
878020a4:	e3a00000 	mov	r0, #0, 0
878020a8:	e12fff1e 	bx	lr
878020ac:	00000000 	andeq	r0, r0, r0

878020b0 <number>:
878020b0:	e92d4ff0 	push	{r4, r5, r6, r7, r8, r9, sl, fp, lr}
878020b4:	e24dd0a4 	sub	sp, sp, #164, 0	; 0xa4
878020b8:	e1a05001 	mov	r5, r1
878020bc:	e59d10c8 	ldr	r1, [sp, #200]	; 0xc8
878020c0:	e1a04000 	mov	r4, r0
878020c4:	e59d60d4 	ldr	r6, [sp, #212]	; 0xd4
878020c8:	e251700a 	subs	r7, r1, #10, 0
878020cc:	13a07001 	movne	r7, #1, 0
878020d0:	e2161010 	ands	r1, r6, #16, 0
878020d4:	e2068020 	and	r8, r6, #32, 0
878020d8:	e58d1004 	str	r1, [sp, #4]
878020dc:	e00772a6 	and	r7, r7, r6, lsr #5
878020e0:	159d1004 	ldrne	r1, [sp, #4]
878020e4:	02061011 	andeq	r1, r6, #17, 0
878020e8:	13c66001 	bicne	r6, r6, #1, 0
878020ec:	e58d1008 	str	r1, [sp, #8]
878020f0:	e2161002 	ands	r1, r6, #2, 0
878020f4:	0a00000c 	beq	8780212c <number+0x7c>
878020f8:	e3520000 	cmp	r2, #0, 0
878020fc:	e2d31000 	sbcs	r1, r3, #0, 0
87802100:	ba00006e 	blt	878022c0 <number+0x210>
87802104:	e3160004 	tst	r6, #4, 0
87802108:	1a0000a8 	bne	878023b0 <number+0x300>
8780210c:	e2161008 	ands	r1, r6, #8, 0
87802110:	0a000005 	beq	8780212c <number+0x7c>
87802114:	e59d10cc 	ldr	r1, [sp, #204]	; 0xcc
87802118:	e2411001 	sub	r1, r1, #1, 0
8780211c:	e58d10cc 	str	r1, [sp, #204]	; 0xcc
87802120:	e3a01020 	mov	r1, #32, 0
87802124:	e58d100c 	str	r1, [sp, #12]
87802128:	ea000000 	b	87802130 <number+0x80>
8780212c:	e58d100c 	str	r1, [sp, #12]
87802130:	e3570000 	cmp	r7, #0, 0
87802134:	1a00006a 	bne	878022e4 <number+0x234>
87802138:	e1921003 	orrs	r1, r2, r3
8780213c:	1a000074 	bne	87802314 <number+0x264>
87802140:	e3a0c000 	mov	ip, #0, 0
87802144:	e3a00001 	mov	r0, #1, 0
87802148:	e3a03030 	mov	r3, #48, 0	; 0x30
8780214c:	e5cd303c 	strb	r3, [sp, #60]	; 0x3c
87802150:	e59d30d0 	ldr	r3, [sp, #208]	; 0xd0
87802154:	e59d2008 	ldr	r2, [sp, #8]
87802158:	e1500003 	cmp	r0, r3
8780215c:	a1a03000 	movge	r3, r0
87802160:	e3520000 	cmp	r2, #0, 0
87802164:	e59d20cc 	ldr	r2, [sp, #204]	; 0xcc
87802168:	e0421003 	sub	r1, r2, r3
8780216c:	e2412001 	sub	r2, r1, #1, 0
87802170:	1a00000a 	bne	878021a0 <number+0xf0>
87802174:	e3520000 	cmp	r2, #0, 0
87802178:	b2412002 	sublt	r2, r1, #2, 0
8780217c:	ba000007 	blt	878021a0 <number+0xf0>
87802180:	e0842001 	add	r2, r4, r1
87802184:	e3a01020 	mov	r1, #32, 0
87802188:	e1550004 	cmp	r5, r4
8780218c:	e2844001 	add	r4, r4, #1, 0
87802190:	85441001 	strbhi	r1, [r4, #-1]
87802194:	e1540002 	cmp	r4, r2
87802198:	1afffffa 	bne	87802188 <number+0xd8>
8780219c:	e3e02001 	mvn	r2, #1, 0
878021a0:	e59d100c 	ldr	r1, [sp, #12]
878021a4:	e3510000 	cmp	r1, #0, 0
878021a8:	0a000002 	beq	878021b8 <number+0x108>
878021ac:	e1540005 	cmp	r4, r5
878021b0:	e2844001 	add	r4, r4, #1, 0
878021b4:	35441001 	strbcc	r1, [r4, #-1]
878021b8:	e3570000 	cmp	r7, #0, 0
878021bc:	0a00000b 	beq	878021f0 <number+0x140>
878021c0:	e1540005 	cmp	r4, r5
878021c4:	33a01030 	movcc	r1, #48, 0	; 0x30
878021c8:	35c41000 	strbcc	r1, [r4]
878021cc:	e59d10c8 	ldr	r1, [sp, #200]	; 0xc8
878021d0:	e3510010 	cmp	r1, #16, 0
878021d4:	e2841001 	add	r1, r4, #1, 0
878021d8:	11a04001 	movne	r4, r1
878021dc:	1a000003 	bne	878021f0 <number+0x140>
878021e0:	e1550001 	cmp	r5, r1
878021e4:	e2844002 	add	r4, r4, #2, 0
878021e8:	83888058 	orrhi	r8, r8, #88, 0	; 0x58
878021ec:	85448001 	strbhi	r8, [r4, #-1]
878021f0:	e59d1004 	ldr	r1, [sp, #4]
878021f4:	e3510000 	cmp	r1, #0, 0
878021f8:	1a00000d 	bne	87802234 <number+0x184>
878021fc:	e3160001 	tst	r6, #1, 0
87802200:	13a01030 	movne	r1, #48, 0	; 0x30
87802204:	03a01020 	moveq	r1, #32, 0
87802208:	e3520000 	cmp	r2, #0, 0
8780220c:	b2422001 	sublt	r2, r2, #1, 0
87802210:	ba000007 	blt	87802234 <number+0x184>
87802214:	e2822001 	add	r2, r2, #1, 0
87802218:	e0842002 	add	r2, r4, r2
8780221c:	e1550004 	cmp	r5, r4
87802220:	e2844001 	add	r4, r4, #1, 0
87802224:	85441001 	strbhi	r1, [r4, #-1]
87802228:	e1540002 	cmp	r4, r2
8780222c:	1afffffa 	bne	8780221c <number+0x16c>
87802230:	e3e02001 	mvn	r2, #1, 0
87802234:	e1500003 	cmp	r0, r3
87802238:	b0430000 	sublt	r0, r3, r0
8780223c:	b3a03030 	movlt	r3, #48, 0	; 0x30
87802240:	b0840000 	addlt	r0, r4, r0
87802244:	aa0000bc 	bge	8780253c <number+0x48c>
87802248:	e1550004 	cmp	r5, r4
8780224c:	e2844001 	add	r4, r4, #1, 0
87802250:	85443001 	strbhi	r3, [r4, #-1]
87802254:	e1540000 	cmp	r4, r0
87802258:	1afffffa 	bne	87802248 <number+0x198>
8780225c:	e35c0000 	cmp	ip, #0, 0
87802260:	ba0000b3 	blt	87802534 <number+0x484>
87802264:	e28c3001 	add	r3, ip, #1, 0
87802268:	e28d103c 	add	r1, sp, #60, 0	; 0x3c
8780226c:	e081c00c 	add	ip, r1, ip
87802270:	e0803003 	add	r3, r0, r3
87802274:	e1550000 	cmp	r5, r0
87802278:	e2800001 	add	r0, r0, #1, 0
8780227c:	85dc1000 	ldrbhi	r1, [ip]
87802280:	e24cc001 	sub	ip, ip, #1, 0
87802284:	85401001 	strbhi	r1, [r0, #-1]
87802288:	e1500003 	cmp	r0, r3
8780228c:	1afffff8 	bne	87802274 <number+0x1c4>
87802290:	e3520000 	cmp	r2, #0, 0
87802294:	ba0000a3 	blt	87802528 <number+0x478>
87802298:	e2820001 	add	r0, r2, #1, 0
8780229c:	e3a02020 	mov	r2, #32, 0
878022a0:	e0830000 	add	r0, r3, r0
878022a4:	e1550003 	cmp	r5, r3
878022a8:	e2833001 	add	r3, r3, #1, 0
878022ac:	85432001 	strbhi	r2, [r3, #-1]
878022b0:	e1530000 	cmp	r3, r0
878022b4:	1afffffa 	bne	878022a4 <number+0x1f4>
878022b8:	e28dd0a4 	add	sp, sp, #164, 0	; 0xa4
878022bc:	e8bd8ff0 	pop	{r4, r5, r6, r7, r8, r9, sl, fp, pc}
878022c0:	e59d10cc 	ldr	r1, [sp, #204]	; 0xcc
878022c4:	e2722000 	rsbs	r2, r2, #0, 0
878022c8:	e2e33000 	rsc	r3, r3, #0, 0
878022cc:	e3570000 	cmp	r7, #0, 0
878022d0:	e2411001 	sub	r1, r1, #1, 0
878022d4:	e58d10cc 	str	r1, [sp, #204]	; 0xcc
878022d8:	e3a0102d 	mov	r1, #45, 0	; 0x2d
878022dc:	e58d100c 	str	r1, [sp, #12]
878022e0:	0a00000b 	beq	87802314 <number+0x264>
878022e4:	e59d10c8 	ldr	r1, [sp, #200]	; 0xc8
878022e8:	e3510010 	cmp	r1, #16, 0
878022ec:	0a000011 	beq	87802338 <number+0x288>
878022f0:	e1921003 	orrs	r1, r2, r3
878022f4:	e59d10cc 	ldr	r1, [sp, #204]	; 0xcc
878022f8:	e2411001 	sub	r1, r1, #1, 0
878022fc:	e58d10cc 	str	r1, [sp, #204]	; 0xcc
87802300:	0affff8e 	beq	87802140 <number+0x90>
87802304:	e59d10c8 	ldr	r1, [sp, #200]	; 0xc8
87802308:	e3a0a003 	mov	sl, #3, 0
8780230c:	e241b001 	sub	fp, r1, #1, 0
87802310:	ea00000f 	b	87802354 <number+0x2a4>
87802314:	e59d10c8 	ldr	r1, [sp, #200]	; 0xc8
87802318:	e351000a 	cmp	r1, #10, 0
8780231c:	0a000029 	beq	878023c8 <number+0x318>
87802320:	e3510010 	cmp	r1, #16, 0
87802324:	1241b001 	subne	fp, r1, #1, 0
87802328:	03a0b00f 	moveq	fp, #15, 0
8780232c:	13a0a003 	movne	sl, #3, 0
87802330:	03a0a004 	moveq	sl, #4, 0
87802334:	ea000006 	b	87802354 <number+0x2a4>
87802338:	e1921003 	orrs	r1, r2, r3
8780233c:	e59d10cc 	ldr	r1, [sp, #204]	; 0xcc
87802340:	13a0b00f 	movne	fp, #15, 0
87802344:	13a0a004 	movne	sl, #4, 0
87802348:	e2411002 	sub	r1, r1, #2, 0
8780234c:	e58d10cc 	str	r1, [sp, #204]	; 0xcc
87802350:	0affff7a 	beq	87802140 <number+0x90>
87802354:	e3039db8 	movw	r9, #15800	; 0x3db8
87802358:	e28de03c 	add	lr, sp, #60, 0	; 0x3c
8780235c:	e3489780 	movt	r9, #34688	; 0x8780
87802360:	e3a0c000 	mov	ip, #0, 0
87802364:	e58d4010 	str	r4, [sp, #16]
87802368:	ea000000 	b	87802370 <number+0x2c0>
8780236c:	e1a0c000 	mov	ip, r0
87802370:	e6ef1072 	uxtb	r1, r2
87802374:	e1a02a32 	lsr	r2, r2, sl
87802378:	e26a0020 	rsb	r0, sl, #32, 0
8780237c:	e25a4020 	subs	r4, sl, #32, 0
87802380:	e1822013 	orr	r2, r2, r3, lsl r0
87802384:	e001100b 	and	r1, r1, fp
87802388:	e7d91001 	ldrb	r1, [r9, r1]
8780238c:	51822453 	orrpl	r2, r2, r3, asr r4
87802390:	e1a03a53 	asr	r3, r3, sl
87802394:	e1920003 	orrs	r0, r2, r3
87802398:	e1881001 	orr	r1, r8, r1
8780239c:	e28c0001 	add	r0, ip, #1, 0
878023a0:	e4ce1001 	strb	r1, [lr], #1
878023a4:	1afffff0 	bne	8780236c <number+0x2bc>
878023a8:	e59d4010 	ldr	r4, [sp, #16]
878023ac:	eaffff67 	b	87802150 <number+0xa0>
878023b0:	e59d10cc 	ldr	r1, [sp, #204]	; 0xcc
878023b4:	e2411001 	sub	r1, r1, #1, 0
878023b8:	e58d10cc 	str	r1, [sp, #204]	; 0xcc
878023bc:	e3a0102b 	mov	r1, #43, 0	; 0x2b
878023c0:	e58d100c 	str	r1, [sp, #12]
878023c4:	eaffff59 	b	87802130 <number+0x80>
878023c8:	e28f1d0a 	add	r1, pc, #640	; 0x280
878023cc:	e1c100d0 	ldrd	r0, [r1]
878023d0:	e1cd21f8 	strd	r2, [sp, #24]
878023d4:	e1cd23f0 	strd	r2, [sp, #48]	; 0x30
878023d8:	e1530001 	cmp	r3, r1
878023dc:	01520000 	cmpeq	r2, r0
878023e0:	9a000097 	bls	87802644 <number+0x594>
878023e4:	e30836a0 	movw	r3, #34464	; 0x86a0
878023e8:	e3052ac5 	movw	r2, #23237	; 0x5ac5
878023ec:	e3403001 	movt	r3, #1
878023f0:	e3402a7c 	movt	r2, #2684	; 0xa7c
878023f4:	e58d8020 	str	r8, [sp, #32]
878023f8:	e28d9041 	add	r9, sp, #65, 0	; 0x41
878023fc:	e1cd42f8 	strd	r4, [sp, #40]	; 0x28
87802400:	e1a08003 	mov	r8, r3
87802404:	e1cd41d8 	ldrd	r4, [sp, #24]
87802408:	e1cd01f0 	strd	r0, [sp, #16]
8780240c:	e58d7024 	str	r7, [sp, #36]	; 0x24
87802410:	e58d60d4 	str	r6, [sp, #212]	; 0xd4
87802414:	e58d2018 	str	r2, [sp, #24]
87802418:	ea000036 	b	878024f8 <number+0x448>
8780241c:	e1a003a3 	lsr	r0, r3, #7
87802420:	e3a05000 	mov	r5, #0, 0
87802424:	e1a03000 	mov	r3, r0
87802428:	e0604098 	mls	r0, r8, r0, r4
8780242c:	e1a04003 	mov	r4, r3
87802430:	e1cd43f0 	strd	r4, [sp, #48]	; 0x30
87802434:	e7e3e250 	ubfx	lr, r0, #4, #4
87802438:	e7e33450 	ubfx	r3, r0, #8, #4
8780243c:	e1a02620 	lsr	r2, r0, #12
87802440:	e08e1003 	add	r1, lr, r3
87802444:	e200000f 	and	r0, r0, #15, 0
87802448:	e083c103 	add	ip, r3, r3, lsl #2
8780244c:	e0811002 	add	r1, r1, r2
87802450:	e082a182 	add	sl, r2, r2, lsl #3
87802454:	e0811081 	add	r1, r1, r1, lsl #1
87802458:	e1cd61d0 	ldrd	r6, [sp, #16]
8780245c:	e08aa00e 	add	sl, sl, lr
87802460:	e0800081 	add	r0, r0, r1, lsl #1
87802464:	e3a010cd 	mov	r1, #205, 0	; 0xcd
87802468:	e08aa00c 	add	sl, sl, ip
8780246c:	e00b0091 	mul	fp, r1, r0
87802470:	e1550007 	cmp	r5, r7
87802474:	01540006 	cmpeq	r4, r6
87802478:	e1a0e009 	mov	lr, r9
8780247c:	e2899005 	add	r9, r9, #5, 0
87802480:	e1a0b5ab 	lsr	fp, fp, #11
87802484:	e08aa00b 	add	sl, sl, fp
87802488:	e08bb10b 	add	fp, fp, fp, lsl #2
8780248c:	e00c0a91 	mul	ip, r1, sl
87802490:	e040008b 	sub	r0, r0, fp, lsl #1
87802494:	e2800030 	add	r0, r0, #48, 0	; 0x30
87802498:	e1a0c5ac 	lsr	ip, ip, #11
8780249c:	e549000a 	strb	r0, [r9, #-10]
878024a0:	e08c3083 	add	r3, ip, r3, lsl #1
878024a4:	e08cc10c 	add	ip, ip, ip, lsl #2
878024a8:	e0830083 	add	r0, r3, r3, lsl #1
878024ac:	e04ac08c 	sub	ip, sl, ip, lsl #1
878024b0:	e0830100 	add	r0, r3, r0, lsl #2
878024b4:	e28cc030 	add	ip, ip, #48, 0	; 0x30
878024b8:	e549c009 	strb	ip, [r9, #-9]
878024bc:	e1a003a0 	lsr	r0, r0, #7
878024c0:	e0802102 	add	r2, r0, r2, lsl #2
878024c4:	e0800100 	add	r0, r0, r0, lsl #2
878024c8:	e0010291 	mul	r1, r1, r2
878024cc:	e0430080 	sub	r0, r3, r0, lsl #1
878024d0:	e2800030 	add	r0, r0, #48, 0	; 0x30
878024d4:	e5490008 	strb	r0, [r9, #-8]
878024d8:	e1a015a1 	lsr	r1, r1, #11
878024dc:	e0813101 	add	r3, r1, r1, lsl #2
878024e0:	e2811030 	add	r1, r1, #48, 0	; 0x30
878024e4:	e5491006 	strb	r1, [r9, #-6]
878024e8:	e0422083 	sub	r2, r2, r3, lsl #1
878024ec:	e2822030 	add	r2, r2, #48, 0	; 0x30
878024f0:	e5492007 	strb	r2, [r9, #-7]
878024f4:	9a000012 	bls	87802544 <number+0x494>
878024f8:	e1a02005 	mov	r2, r5
878024fc:	e3a03000 	mov	r3, #0, 0
87802500:	e1a012a4 	lsr	r1, r4, #5
87802504:	e1923003 	orrs	r3, r2, r3
87802508:	e59d3018 	ldr	r3, [sp, #24]
8780250c:	e0832193 	umull	r2, r3, r3, r1
87802510:	0affffc1 	beq	8780241c <number+0x36c>
87802514:	e1a01008 	mov	r1, r8
87802518:	e28d0030 	add	r0, sp, #48, 0	; 0x30
8780251c:	ebfffc81 	bl	87801728 <__div64_32>
87802520:	e1cd43d0 	ldrd	r4, [sp, #48]	; 0x30
87802524:	eaffffc2 	b	87802434 <number+0x384>
87802528:	e1a00003 	mov	r0, r3
8780252c:	e28dd0a4 	add	sp, sp, #164, 0	; 0xa4
87802530:	e8bd8ff0 	pop	{r4, r5, r6, r7, r8, r9, sl, fp, pc}
87802534:	e1a03000 	mov	r3, r0
87802538:	eaffff54 	b	87802290 <number+0x1e0>
8780253c:	e1a00004 	mov	r0, r4
87802540:	eaffff45 	b	8780225c <number+0x1ac>
87802544:	e1cd41f8 	strd	r4, [sp, #24]
87802548:	e28db03c 	add	fp, sp, #60, 0	; 0x3c
8780254c:	e59d8020 	ldr	r8, [sp, #32]
87802550:	e59d7024 	ldr	r7, [sp, #36]	; 0x24
87802554:	e1cd42d8 	ldrd	r4, [sp, #40]	; 0x28
87802558:	e59d60d4 	ldr	r6, [sp, #212]	; 0xd4
8780255c:	e1cd21d8 	ldrd	r2, [sp, #24]
87802560:	e7e30252 	ubfx	r0, r2, #4, #4
87802564:	e7e31452 	ubfx	r1, r2, #8, #4
87802568:	e1a0a622 	lsr	sl, r2, #12
8780256c:	e0803001 	add	r3, r0, r1
87802570:	e59d2018 	ldr	r2, [sp, #24]
87802574:	e081c101 	add	ip, r1, r1, lsl #2
87802578:	e083300a 	add	r3, r3, sl
8780257c:	e0833083 	add	r3, r3, r3, lsl #1
87802580:	e202900f 	and	r9, r2, #15, 0
87802584:	e08a218a 	add	r2, sl, sl, lsl #3
87802588:	e0893083 	add	r3, r9, r3, lsl #1
8780258c:	e3a090cd 	mov	r9, #205, 0	; 0xcd
87802590:	e0822000 	add	r2, r2, r0
87802594:	e082000c 	add	r0, r2, ip
87802598:	e0020399 	mul	r2, r9, r3
8780259c:	e1a025a2 	lsr	r2, r2, #11
878025a0:	e082c102 	add	ip, r2, r2, lsl #2
878025a4:	e0902002 	adds	r2, r0, r2
878025a8:	028e0001 	addeq	r0, lr, #1, 0
878025ac:	e043308c 	sub	r3, r3, ip, lsl #1
878025b0:	e2833030 	add	r3, r3, #48, 0	; 0x30
878025b4:	e5ce3000 	strb	r3, [lr]
878025b8:	0a00001e 	beq	87802638 <number+0x588>
878025bc:	e0030299 	mul	r3, r9, r2
878025c0:	e1a035a3 	lsr	r3, r3, #11
878025c4:	e0830103 	add	r0, r3, r3, lsl #2
878025c8:	e0833081 	add	r3, r3, r1, lsl #1
878025cc:	e0422080 	sub	r2, r2, r0, lsl #1
878025d0:	e19a1003 	orrs	r1, sl, r3
878025d4:	028e0002 	addeq	r0, lr, #2, 0
878025d8:	e2822030 	add	r2, r2, #48, 0	; 0x30
878025dc:	e5ce2001 	strb	r2, [lr, #1]
878025e0:	0a000014 	beq	87802638 <number+0x588>
878025e4:	e0832083 	add	r2, r3, r3, lsl #1
878025e8:	e0832102 	add	r2, r3, r2, lsl #2
878025ec:	e1a023a2 	lsr	r2, r2, #7
878025f0:	e0821102 	add	r1, r2, r2, lsl #2
878025f4:	e092a10a 	adds	sl, r2, sl, lsl #2
878025f8:	e0433081 	sub	r3, r3, r1, lsl #1
878025fc:	028e0003 	addeq	r0, lr, #3, 0
87802600:	e2833030 	add	r3, r3, #48, 0	; 0x30
87802604:	e5ce3002 	strb	r3, [lr, #2]
87802608:	0a00000a 	beq	87802638 <number+0x588>
8780260c:	e0030a99 	mul	r3, r9, sl
87802610:	e1a035a3 	lsr	r3, r3, #11
87802614:	e0832103 	add	r2, r3, r3, lsl #2
87802618:	e3530000 	cmp	r3, #0, 0
8780261c:	028e0004 	addeq	r0, lr, #4, 0
87802620:	e04a2082 	sub	r2, sl, r2, lsl #1
87802624:	128e0005 	addne	r0, lr, #5, 0
87802628:	12833030 	addne	r3, r3, #48, 0	; 0x30
8780262c:	e2822030 	add	r2, r2, #48, 0	; 0x30
87802630:	15ce3004 	strbne	r3, [lr, #4]
87802634:	e5ce2003 	strb	r2, [lr, #3]
87802638:	e040000b 	sub	r0, r0, fp
8780263c:	e240c001 	sub	ip, r0, #1, 0
87802640:	eafffec2 	b	87802150 <number+0xa0>
87802644:	e28db03c 	add	fp, sp, #60, 0	; 0x3c
87802648:	e1a0e00b 	mov	lr, fp
8780264c:	eaffffc2 	b	8780255c <number+0x4ac>
87802650:	0001869f 	muleq	r1, pc, r6	; <UNPREDICTABLE>
87802654:	00000000 	andeq	r0, r0, r0

87802658 <simple_strtoul>:
87802658:	e3520000 	cmp	r2, #0, 0
8780265c:	e92d4070 	push	{r4, r5, r6, lr}
87802660:	e1a05000 	mov	r5, r0
87802664:	e5d0c000 	ldrb	ip, [r0]
87802668:	1a000008 	bne	87802690 <simple_strtoul+0x38>
8780266c:	e35c0030 	cmp	ip, #48, 0	; 0x30
87802670:	0a000035 	beq	8780274c <simple_strtoul+0xf4>
87802674:	e3036e10 	movw	r6, #15888	; 0x3e10
87802678:	e1a0300c 	mov	r3, ip
8780267c:	e3486780 	movt	r6, #34688	; 0x8780
87802680:	e3a0200a 	mov	r2, #10, 0
87802684:	e7d6e00c 	ldrb	lr, [r6, ip]
87802688:	e20e4044 	and	r4, lr, #68, 0	; 0x44
8780268c:	ea000006 	b	878026ac <simple_strtoul+0x54>
87802690:	e3520010 	cmp	r2, #16, 0
87802694:	0a00001a 	beq	87802704 <simple_strtoul+0xac>
87802698:	e3036e10 	movw	r6, #15888	; 0x3e10
8780269c:	e1a0300c 	mov	r3, ip
878026a0:	e3486780 	movt	r6, #34688	; 0x8780
878026a4:	e7d6e00c 	ldrb	lr, [r6, ip]
878026a8:	e20e4044 	and	r4, lr, #68, 0	; 0x44
878026ac:	e3540000 	cmp	r4, #0, 0
878026b0:	0a00003f 	beq	878027b4 <simple_strtoul+0x15c>
878026b4:	e3a00000 	mov	r0, #0, 0
878026b8:	ea000005 	b	878026d4 <simple_strtoul+0x7c>
878026bc:	e5f5c001 	ldrb	ip, [r5, #1]!
878026c0:	e0203290 	mla	r0, r0, r2, r3
878026c4:	e7d6e00c 	ldrb	lr, [r6, ip]
878026c8:	e1a0300c 	mov	r3, ip
878026cc:	e31e0044 	tst	lr, #68, 0	; 0x44
878026d0:	0a000008 	beq	878026f8 <simple_strtoul+0xa0>
878026d4:	e31e0004 	tst	lr, #4, 0
878026d8:	e2433030 	sub	r3, r3, #48, 0	; 0x30
878026dc:	1a000003 	bne	878026f0 <simple_strtoul+0x98>
878026e0:	e24c3020 	sub	r3, ip, #32, 0
878026e4:	e31e0002 	tst	lr, #2, 0
878026e8:	16efc073 	uxtbne	ip, r3
878026ec:	e24c3037 	sub	r3, ip, #55, 0	; 0x37
878026f0:	e1530002 	cmp	r3, r2
878026f4:	3afffff0 	bcc	878026bc <simple_strtoul+0x64>
878026f8:	e3510000 	cmp	r1, #0, 0
878026fc:	15815000 	strne	r5, [r1]
87802700:	e8bd8070 	pop	{r4, r5, r6, pc}
87802704:	e35c0030 	cmp	ip, #48, 0	; 0x30
87802708:	1affffe2 	bne	87802698 <simple_strtoul+0x40>
8780270c:	e5d03001 	ldrb	r3, [r0, #1]
87802710:	e3036e10 	movw	r6, #15888	; 0x3e10
87802714:	e3486780 	movt	r6, #34688	; 0x8780
87802718:	e7d60003 	ldrb	r0, [r6, r3]
8780271c:	e3100002 	tst	r0, #2, 0
87802720:	12433020 	subne	r3, r3, #32, 0
87802724:	16ef3073 	uxtbne	r3, r3
87802728:	e3530058 	cmp	r3, #88, 0	; 0x58
8780272c:	05d5c002 	ldrbeq	ip, [r5, #2]
87802730:	13a03030 	movne	r3, #48, 0	; 0x30
87802734:	15d6e030 	ldrbne	lr, [r6, #48]	; 0x30
87802738:	02855002 	addeq	r5, r5, #2, 0
8780273c:	07d6e00c 	ldrbeq	lr, [r6, ip]
87802740:	01a0300c 	moveq	r3, ip
87802744:	e20e4044 	and	r4, lr, #68, 0	; 0x44
87802748:	eaffffd7 	b	878026ac <simple_strtoul+0x54>
8780274c:	e5d0c001 	ldrb	ip, [r0, #1]
87802750:	e3036e10 	movw	r6, #15888	; 0x3e10
87802754:	e3486780 	movt	r6, #34688	; 0x8780
87802758:	e2800001 	add	r0, r0, #1, 0
8780275c:	e7d6e00c 	ldrb	lr, [r6, ip]
87802760:	e1a0300c 	mov	r3, ip
87802764:	e31e0002 	tst	lr, #2, 0
87802768:	124c2020 	subne	r2, ip, #32, 0
8780276c:	01a0200c 	moveq	r2, ip
87802770:	16ef2072 	uxtbne	r2, r2
87802774:	e3520058 	cmp	r2, #88, 0	; 0x58
87802778:	0a000003 	beq	8780278c <simple_strtoul+0x134>
8780277c:	e1a05000 	mov	r5, r0
87802780:	e20e4044 	and	r4, lr, #68, 0	; 0x44
87802784:	e3a02008 	mov	r2, #8, 0
87802788:	eaffffc7 	b	878026ac <simple_strtoul+0x54>
8780278c:	e5d54002 	ldrb	r4, [r5, #2]
87802790:	e7d62004 	ldrb	r2, [r6, r4]
87802794:	e3120044 	tst	r2, #68, 0	; 0x44
87802798:	0afffff7 	beq	8780277c <simple_strtoul+0x124>
8780279c:	e1a0e002 	mov	lr, r2
878027a0:	e1a03004 	mov	r3, r4
878027a4:	e2855002 	add	r5, r5, #2, 0
878027a8:	e1a0c004 	mov	ip, r4
878027ac:	e3a02010 	mov	r2, #16, 0
878027b0:	eaffffbf 	b	878026b4 <simple_strtoul+0x5c>
878027b4:	e1a00004 	mov	r0, r4
878027b8:	eaffffce 	b	878026f8 <simple_strtoul+0xa0>

878027bc <simple_strtol>:
878027bc:	e5d0c000 	ldrb	ip, [r0]
878027c0:	e35c002d 	cmp	ip, #45, 0	; 0x2d
878027c4:	0a000000 	beq	878027cc <simple_strtol+0x10>
878027c8:	eaffffa2 	b	87802658 <simple_strtoul>
878027cc:	e92d4010 	push	{r4, lr}
878027d0:	e2800001 	add	r0, r0, #1, 0
878027d4:	ebffff9f 	bl	87802658 <simple_strtoul>
878027d8:	e2600000 	rsb	r0, r0, #0, 0
878027dc:	e8bd8010 	pop	{r4, pc}

878027e0 <simple_strtoull>:
878027e0:	e92d4ff0 	push	{r4, r5, r6, r7, r8, r9, sl, fp, lr}
878027e4:	e2526000 	subs	r6, r2, #0, 0
878027e8:	e1a0e000 	mov	lr, r0
878027ec:	e1a0b001 	mov	fp, r1
878027f0:	e5d03000 	ldrb	r3, [r0]
878027f4:	1a000008 	bne	8780281c <simple_strtoull+0x3c>
878027f8:	e3530030 	cmp	r3, #48, 0	; 0x30
878027fc:	0a00003f 	beq	87802900 <simple_strtoull+0x120>
87802800:	e303ae10 	movw	sl, #15888	; 0x3e10
87802804:	e1a02003 	mov	r2, r3
87802808:	e348a780 	movt	sl, #34688	; 0x8780
8780280c:	e3a0600a 	mov	r6, #10, 0
87802810:	e7dac003 	ldrb	ip, [sl, r3]
87802814:	e20c1044 	and	r1, ip, #68, 0	; 0x44
87802818:	ea000006 	b	87802838 <simple_strtoull+0x58>
8780281c:	e3560010 	cmp	r6, #16, 0
87802820:	0a000024 	beq	878028b8 <simple_strtoull+0xd8>
87802824:	e303ae10 	movw	sl, #15888	; 0x3e10
87802828:	e1a02003 	mov	r2, r3
8780282c:	e348a780 	movt	sl, #34688	; 0x8780
87802830:	e7dac003 	ldrb	ip, [sl, r3]
87802834:	e20c1044 	and	r1, ip, #68, 0	; 0x44
87802838:	e3510000 	cmp	r1, #0, 0
8780283c:	0a000049 	beq	87802968 <simple_strtoull+0x188>
87802840:	e3a00000 	mov	r0, #0, 0
87802844:	e3a01000 	mov	r1, #0, 0
87802848:	e3a07000 	mov	r7, #0, 0
8780284c:	ea000008 	b	87802874 <simple_strtoull+0x94>
87802850:	e0213196 	mla	r1, r6, r1, r3
87802854:	e5fe3001 	ldrb	r3, [lr, #1]!
87802858:	e0980004 	adds	r0, r8, r4
8780285c:	e7dac003 	ldrb	ip, [sl, r3]
87802860:	e1a02003 	mov	r2, r3
87802864:	e0819009 	add	r9, r1, r9
87802868:	e0a91005 	adc	r1, r9, r5
8780286c:	e31c0044 	tst	ip, #68, 0	; 0x44
87802870:	0a00000d 	beq	878028ac <simple_strtoull+0xcc>
87802874:	e31c0004 	tst	ip, #4, 0
87802878:	e2424030 	sub	r4, r2, #48, 0	; 0x30
8780287c:	1a000004 	bne	87802894 <simple_strtoull+0xb4>
87802880:	e2433020 	sub	r3, r3, #32, 0
87802884:	e31c0002 	tst	ip, #2, 0
87802888:	e6ef3073 	uxtb	r3, r3
8780288c:	e2424037 	sub	r4, r2, #55, 0	; 0x37
87802890:	12434037 	subne	r4, r3, #55, 0	; 0x37
87802894:	e1a05fc4 	asr	r5, r4, #31
87802898:	e0030790 	mul	r3, r0, r7
8780289c:	e1550007 	cmp	r5, r7
878028a0:	e0898690 	umull	r8, r9, r0, r6
878028a4:	01540006 	cmpeq	r4, r6
878028a8:	3affffe8 	bcc	87802850 <simple_strtoull+0x70>
878028ac:	e35b0000 	cmp	fp, #0, 0
878028b0:	158be000 	strne	lr, [fp]
878028b4:	e8bd8ff0 	pop	{r4, r5, r6, r7, r8, r9, sl, fp, pc}
878028b8:	e3530030 	cmp	r3, #48, 0	; 0x30
878028bc:	1affffd8 	bne	87802824 <simple_strtoull+0x44>
878028c0:	e5d02001 	ldrb	r2, [r0, #1]
878028c4:	e303ae10 	movw	sl, #15888	; 0x3e10
878028c8:	e348a780 	movt	sl, #34688	; 0x8780
878028cc:	e7da1002 	ldrb	r1, [sl, r2]
878028d0:	e3110002 	tst	r1, #2, 0
878028d4:	12422020 	subne	r2, r2, #32, 0
878028d8:	16ef2072 	uxtbne	r2, r2
878028dc:	e3520058 	cmp	r2, #88, 0	; 0x58
878028e0:	05d03002 	ldrbeq	r3, [r0, #2]
878028e4:	13a02030 	movne	r2, #48, 0	; 0x30
878028e8:	15dac030 	ldrbne	ip, [sl, #48]	; 0x30
878028ec:	0280e002 	addeq	lr, r0, #2, 0
878028f0:	07dac003 	ldrbeq	ip, [sl, r3]
878028f4:	01a02003 	moveq	r2, r3
878028f8:	e20c1044 	and	r1, ip, #68, 0	; 0x44
878028fc:	eaffffcd 	b	87802838 <simple_strtoull+0x58>
87802900:	e5d03001 	ldrb	r3, [r0, #1]
87802904:	e303ae10 	movw	sl, #15888	; 0x3e10
87802908:	e348a780 	movt	sl, #34688	; 0x8780
8780290c:	e2800001 	add	r0, r0, #1, 0
87802910:	e7dac003 	ldrb	ip, [sl, r3]
87802914:	e1a02003 	mov	r2, r3
87802918:	e31c0002 	tst	ip, #2, 0
8780291c:	12431020 	subne	r1, r3, #32, 0
87802920:	01a01003 	moveq	r1, r3
87802924:	16ef1071 	uxtbne	r1, r1
87802928:	e3510058 	cmp	r1, #88, 0	; 0x58
8780292c:	0a000003 	beq	87802940 <simple_strtoull+0x160>
87802930:	e1a0e000 	mov	lr, r0
87802934:	e20c1044 	and	r1, ip, #68, 0	; 0x44
87802938:	e3a06008 	mov	r6, #8, 0
8780293c:	eaffffbd 	b	87802838 <simple_strtoull+0x58>
87802940:	e5de4002 	ldrb	r4, [lr, #2]
87802944:	e7da1004 	ldrb	r1, [sl, r4]
87802948:	e3110044 	tst	r1, #68, 0	; 0x44
8780294c:	0afffff7 	beq	87802930 <simple_strtoull+0x150>
87802950:	e1a02004 	mov	r2, r4
87802954:	e28ee002 	add	lr, lr, #2, 0
87802958:	e1a0c001 	mov	ip, r1
8780295c:	e1a03004 	mov	r3, r4
87802960:	e3a06010 	mov	r6, #16, 0
87802964:	eaffffb5 	b	87802840 <simple_strtoull+0x60>
87802968:	e3a00000 	mov	r0, #0, 0
8780296c:	e3a01000 	mov	r1, #0, 0
87802970:	eaffffcd 	b	878028ac <simple_strtoull+0xcc>

87802974 <simple_strtoll>:
87802974:	e5d0c000 	ldrb	ip, [r0]
87802978:	e35c002d 	cmp	ip, #45, 0	; 0x2d
8780297c:	0a000000 	beq	87802984 <simple_strtoll+0x10>
87802980:	eaffff96 	b	878027e0 <simple_strtoull>
87802984:	e92d4010 	push	{r4, lr}
87802988:	e2800001 	add	r0, r0, #1, 0
8780298c:	ebffff93 	bl	878027e0 <simple_strtoull>
87802990:	e2700000 	rsbs	r0, r0, #0, 0
87802994:	e2e11000 	rsc	r1, r1, #0, 0
87802998:	e8bd8010 	pop	{r4, pc}

8780299c <vsnprintf>:
8780299c:	e92d4ff0 	push	{r4, r5, r6, r7, r8, r9, sl, fp, lr}
878029a0:	e251b000 	subs	fp, r1, #0, 0
878029a4:	e24dd024 	sub	sp, sp, #36, 0	; 0x24
878029a8:	ba0001fb 	blt	8780319c <vsnprintf+0x800>
878029ac:	e24b6001 	sub	r6, fp, #1, 0
878029b0:	e1a07003 	mov	r7, r3
878029b4:	e0806006 	add	r6, r0, r6
878029b8:	e2403001 	sub	r3, r0, #1, 0
878029bc:	e1560003 	cmp	r6, r3
878029c0:	e1a09000 	mov	r9, r0
878029c4:	e1a01002 	mov	r1, r2
878029c8:	e5d20000 	ldrb	r0, [r2]
878029cc:	3a0000aa 	bcc	87802c7c <vsnprintf+0x2e0>
878029d0:	e3500000 	cmp	r0, #0, 0
878029d4:	0a00022a 	beq	87803284 <vsnprintf+0x8e8>
878029d8:	e3033df8 	movw	r3, #15864	; 0x3df8
878029dc:	e3038e10 	movw	r8, #15888	; 0x3e10
878029e0:	e3483780 	movt	r3, #34688	; 0x8780
878029e4:	e3488780 	movt	r8, #34688	; 0x8780
878029e8:	e58d3014 	str	r3, [sp, #20]
878029ec:	e1a04009 	mov	r4, r9
878029f0:	ea000006 	b	87802a10 <vsnprintf+0x74>
878029f4:	e1560004 	cmp	r6, r4
878029f8:	e2811001 	add	r1, r1, #1, 0
878029fc:	25c40000 	strbcs	r0, [r4]
87802a00:	e2844001 	add	r4, r4, #1, 0
87802a04:	e5d10000 	ldrb	r0, [r1]
87802a08:	e3500000 	cmp	r0, #0, 0
87802a0c:	0a0000a0 	beq	87802c94 <vsnprintf+0x2f8>
87802a10:	e3500025 	cmp	r0, #37, 0	; 0x25
87802a14:	1afffff6 	bne	878029f4 <vsnprintf+0x58>
87802a18:	e3a02000 	mov	r2, #0, 0
87802a1c:	e5d13001 	ldrb	r3, [r1, #1]
87802a20:	e2810001 	add	r0, r1, #1, 0
87802a24:	e243c020 	sub	ip, r3, #32, 0
87802a28:	e35c0010 	cmp	ip, #16, 0
87802a2c:	979ff10c 	ldrls	pc, [pc, ip, lsl #2]
87802a30:	ea00001b 	b	87802aa4 <vsnprintf+0x108>
87802a34:	87802a9c 			; <UNDEFINED> instruction: 0x87802a9c
87802a38:	87802aa4 	strhi	r2, [r0, r4, lsr #21]
87802a3c:	87802aa4 	strhi	r2, [r0, r4, lsr #21]
87802a40:	87802a94 			; <UNDEFINED> instruction: 0x87802a94
87802a44:	87802aa4 	strhi	r2, [r0, r4, lsr #21]
87802a48:	87802aa4 	strhi	r2, [r0, r4, lsr #21]
87802a4c:	87802aa4 	strhi	r2, [r0, r4, lsr #21]
87802a50:	87802aa4 	strhi	r2, [r0, r4, lsr #21]
87802a54:	87802aa4 	strhi	r2, [r0, r4, lsr #21]
87802a58:	87802aa4 	strhi	r2, [r0, r4, lsr #21]
87802a5c:	87802aa4 	strhi	r2, [r0, r4, lsr #21]
87802a60:	87802a8c 	strhi	r2, [r0, ip, lsl #21]
87802a64:	87802aa4 	strhi	r2, [r0, r4, lsr #21]
87802a68:	87802a84 	strhi	r2, [r0, r4, lsl #21]
87802a6c:	87802aa4 	strhi	r2, [r0, r4, lsr #21]
87802a70:	87802aa4 	strhi	r2, [r0, r4, lsr #21]
87802a74:	87802a78 			; <UNDEFINED> instruction: 0x87802a78
87802a78:	e3822001 	orr	r2, r2, #1, 0
87802a7c:	e1a01000 	mov	r1, r0
87802a80:	eaffffe5 	b	87802a1c <vsnprintf+0x80>
87802a84:	e3822010 	orr	r2, r2, #16, 0
87802a88:	eafffffb 	b	87802a7c <vsnprintf+0xe0>
87802a8c:	e3822004 	orr	r2, r2, #4, 0
87802a90:	eafffff9 	b	87802a7c <vsnprintf+0xe0>
87802a94:	e3822020 	orr	r2, r2, #32, 0
87802a98:	eafffff7 	b	87802a7c <vsnprintf+0xe0>
87802a9c:	e3822008 	orr	r2, r2, #8, 0
87802aa0:	eafffff5 	b	87802a7c <vsnprintf+0xe0>
87802aa4:	e7d8e003 	ldrb	lr, [r8, r3]
87802aa8:	e1a0c003 	mov	ip, r3
87802aac:	e31e0004 	tst	lr, #4, 0
87802ab0:	1a0000e6 	bne	87802e50 <vsnprintf+0x4b4>
87802ab4:	e353002a 	cmp	r3, #42, 0	; 0x2a
87802ab8:	13e05000 	mvnne	r5, #0, 0
87802abc:	1a000005 	bne	87802ad8 <vsnprintf+0x13c>
87802ac0:	e4975004 	ldr	r5, [r7], #4
87802ac4:	e2810002 	add	r0, r1, #2, 0
87802ac8:	e5d13002 	ldrb	r3, [r1, #2]
87802acc:	e3550000 	cmp	r5, #0, 0
87802ad0:	b2655000 	rsblt	r5, r5, #0, 0
87802ad4:	b3822010 	orrlt	r2, r2, #16, 0
87802ad8:	e353002e 	cmp	r3, #46, 0	; 0x2e
87802adc:	13e0c000 	mvnne	ip, #0, 0
87802ae0:	0a000073 	beq	87802cb4 <vsnprintf+0x318>
87802ae4:	e20310df 	and	r1, r3, #223, 0	; 0xdf
87802ae8:	e351005a 	cmp	r1, #90, 0	; 0x5a
87802aec:	1351004c 	cmpne	r1, #76, 0	; 0x4c
87802af0:	03a01001 	moveq	r1, #1, 0
87802af4:	13a01000 	movne	r1, #0, 0
87802af8:	e3530068 	cmp	r3, #104, 0	; 0x68
87802afc:	03811001 	orreq	r1, r1, #1, 0
87802b00:	e3510000 	cmp	r1, #0, 0
87802b04:	0a0000e0 	beq	87802e8c <vsnprintf+0x4f0>
87802b08:	e353006c 	cmp	r3, #108, 0	; 0x6c
87802b0c:	e1a01003 	mov	r1, r3
87802b10:	e280a001 	add	sl, r0, #1, 0
87802b14:	e5d03001 	ldrb	r3, [r0, #1]
87802b18:	0a000072 	beq	87802ce8 <vsnprintf+0x34c>
87802b1c:	e2433025 	sub	r3, r3, #37, 0	; 0x25
87802b20:	e3530053 	cmp	r3, #83, 0	; 0x53
87802b24:	979ff103 	ldrls	pc, [pc, r3, lsl #2]
87802b28:	ea000165 	b	878030c4 <vsnprintf+0x728>
87802b2c:	87802ff8 			; <UNDEFINED> instruction: 0x87802ff8
87802b30:	878030c4 	strhi	r3, [r0, r4, asr #1]
87802b34:	878030c4 	strhi	r3, [r0, r4, asr #1]
87802b38:	878030c4 	strhi	r3, [r0, r4, asr #1]
87802b3c:	878030c4 	strhi	r3, [r0, r4, asr #1]
87802b40:	878030c4 	strhi	r3, [r0, r4, asr #1]
87802b44:	878030c4 	strhi	r3, [r0, r4, asr #1]
87802b48:	878030c4 	strhi	r3, [r0, r4, asr #1]
87802b4c:	878030c4 	strhi	r3, [r0, r4, asr #1]
87802b50:	878030c4 	strhi	r3, [r0, r4, asr #1]
87802b54:	878030c4 	strhi	r3, [r0, r4, asr #1]
87802b58:	878030c4 	strhi	r3, [r0, r4, asr #1]
87802b5c:	878030c4 	strhi	r3, [r0, r4, asr #1]
87802b60:	878030c4 	strhi	r3, [r0, r4, asr #1]
87802b64:	878030c4 	strhi	r3, [r0, r4, asr #1]
87802b68:	878030c4 	strhi	r3, [r0, r4, asr #1]
87802b6c:	878030c4 	strhi	r3, [r0, r4, asr #1]
87802b70:	878030c4 	strhi	r3, [r0, r4, asr #1]
87802b74:	878030c4 	strhi	r3, [r0, r4, asr #1]
87802b78:	878030c4 	strhi	r3, [r0, r4, asr #1]
87802b7c:	878030c4 	strhi	r3, [r0, r4, asr #1]
87802b80:	878030c4 	strhi	r3, [r0, r4, asr #1]
87802b84:	878030c4 	strhi	r3, [r0, r4, asr #1]
87802b88:	878030c4 	strhi	r3, [r0, r4, asr #1]
87802b8c:	878030c4 	strhi	r3, [r0, r4, asr #1]
87802b90:	878030c4 	strhi	r3, [r0, r4, asr #1]
87802b94:	878030c4 	strhi	r3, [r0, r4, asr #1]
87802b98:	878030c4 	strhi	r3, [r0, r4, asr #1]
87802b9c:	878030c4 	strhi	r3, [r0, r4, asr #1]
87802ba0:	878030c4 	strhi	r3, [r0, r4, asr #1]
87802ba4:	878030c4 	strhi	r3, [r0, r4, asr #1]
87802ba8:	878030c4 	strhi	r3, [r0, r4, asr #1]
87802bac:	878030c4 	strhi	r3, [r0, r4, asr #1]
87802bb0:	878030c4 	strhi	r3, [r0, r4, asr #1]
87802bb4:	878030c4 	strhi	r3, [r0, r4, asr #1]
87802bb8:	878030c4 	strhi	r3, [r0, r4, asr #1]
87802bbc:	878030c4 	strhi	r3, [r0, r4, asr #1]
87802bc0:	878030c4 	strhi	r3, [r0, r4, asr #1]
87802bc4:	878030c4 	strhi	r3, [r0, r4, asr #1]
87802bc8:	878030c4 	strhi	r3, [r0, r4, asr #1]
87802bcc:	878030c4 	strhi	r3, [r0, r4, asr #1]
87802bd0:	878030c4 	strhi	r3, [r0, r4, asr #1]
87802bd4:	878030c4 	strhi	r3, [r0, r4, asr #1]
87802bd8:	878030c4 	strhi	r3, [r0, r4, asr #1]
87802bdc:	878030c4 	strhi	r3, [r0, r4, asr #1]
87802be0:	878030c4 	strhi	r3, [r0, r4, asr #1]
87802be4:	878030c4 	strhi	r3, [r0, r4, asr #1]
87802be8:	878030c4 	strhi	r3, [r0, r4, asr #1]
87802bec:	878030c4 	strhi	r3, [r0, r4, asr #1]
87802bf0:	878030c4 	strhi	r3, [r0, r4, asr #1]
87802bf4:	878030c4 	strhi	r3, [r0, r4, asr #1]
87802bf8:	87803078 			; <UNDEFINED> instruction: 0x87803078
87802bfc:	878030c4 	strhi	r3, [r0, r4, asr #1]
87802c00:	878030c4 	strhi	r3, [r0, r4, asr #1]
87802c04:	878030c4 	strhi	r3, [r0, r4, asr #1]
87802c08:	878030c4 	strhi	r3, [r0, r4, asr #1]
87802c0c:	878030c4 	strhi	r3, [r0, r4, asr #1]
87802c10:	878030c4 	strhi	r3, [r0, r4, asr #1]
87802c14:	878030c4 	strhi	r3, [r0, r4, asr #1]
87802c18:	878030c4 	strhi	r3, [r0, r4, asr #1]
87802c1c:	878030c4 	strhi	r3, [r0, r4, asr #1]
87802c20:	878030c4 	strhi	r3, [r0, r4, asr #1]
87802c24:	87802f94 			; <UNDEFINED> instruction: 0x87802f94
87802c28:	87803090 			; <UNDEFINED> instruction: 0x87803090
87802c2c:	878030c4 	strhi	r3, [r0, r4, asr #1]
87802c30:	878030c4 	strhi	r3, [r0, r4, asr #1]
87802c34:	878030c4 	strhi	r3, [r0, r4, asr #1]
87802c38:	878030c4 	strhi	r3, [r0, r4, asr #1]
87802c3c:	87803090 			; <UNDEFINED> instruction: 0x87803090
87802c40:	878030c4 	strhi	r3, [r0, r4, asr #1]
87802c44:	878030c4 	strhi	r3, [r0, r4, asr #1]
87802c48:	878030c4 	strhi	r3, [r0, r4, asr #1]
87802c4c:	878030c4 	strhi	r3, [r0, r4, asr #1]
87802c50:	878030ac 	strhi	r3, [r0, ip, lsr #1]
87802c54:	87803014 	usada8hi	r0, r4, r0, r3
87802c58:	87802f4c 	strhi	r2, [r0, ip, asr #30]
87802c5c:	878030c4 	strhi	r3, [r0, r4, asr #1]
87802c60:	878030c4 	strhi	r3, [r0, r4, asr #1]
87802c64:	87802ea8 	strhi	r2, [r0, r8, lsr #29]
87802c68:	878030c4 	strhi	r3, [r0, r4, asr #1]
87802c6c:	878030a4 	strhi	r3, [r0, r4, lsr #1]
87802c70:	878030c4 	strhi	r3, [r0, r4, asr #1]
87802c74:	878030c4 	strhi	r3, [r0, r4, asr #1]
87802c78:	8780309c 			; <UNDEFINED> instruction: 0x8780309c
87802c7c:	e3500000 	cmp	r0, #0, 0
87802c80:	e269b000 	rsb	fp, r9, #0, 0
87802c84:	0a00007b 	beq	87802e78 <vsnprintf+0x4dc>
87802c88:	e3e06000 	mvn	r6, #0, 0
87802c8c:	eaffff51 	b	878029d8 <vsnprintf+0x3c>
87802c90:	e1a04002 	mov	r4, r2
87802c94:	e0440009 	sub	r0, r4, r9
87802c98:	e1560004 	cmp	r6, r4
87802c9c:	2a000076 	bcs	87802e7c <vsnprintf+0x4e0>
87802ca0:	e35b0000 	cmp	fp, #0, 0
87802ca4:	13a03000 	movne	r3, #0, 0
87802ca8:	15c63000 	strbne	r3, [r6]
87802cac:	e28dd024 	add	sp, sp, #36, 0	; 0x24
87802cb0:	e8bd8ff0 	pop	{r4, r5, r6, r7, r8, r9, sl, fp, pc}
87802cb4:	e5d0e001 	ldrb	lr, [r0, #1]
87802cb8:	e2801001 	add	r1, r0, #1, 0
87802cbc:	e7d8c00e 	ldrb	ip, [r8, lr]
87802cc0:	e1a0300e 	mov	r3, lr
87802cc4:	e21cc004 	ands	ip, ip, #4, 0
87802cc8:	1a000127 	bne	8780316c <vsnprintf+0x7d0>
87802ccc:	e35e002a 	cmp	lr, #42, 0	; 0x2a
87802cd0:	0497c004 	ldreq	ip, [r7], #4
87802cd4:	11a00001 	movne	r0, r1
87802cd8:	05d03002 	ldrbeq	r3, [r0, #2]
87802cdc:	02800002 	addeq	r0, r0, #2, 0
87802ce0:	01cccfcc 	biceq	ip, ip, ip, asr #31
87802ce4:	eaffff7e 	b	87802ae4 <vsnprintf+0x148>
87802ce8:	e353006c 	cmp	r3, #108, 0	; 0x6c
87802cec:	0a000069 	beq	87802e98 <vsnprintf+0x4fc>
87802cf0:	e2433025 	sub	r3, r3, #37, 0	; 0x25
87802cf4:	e3530053 	cmp	r3, #83, 0	; 0x53
87802cf8:	979ff103 	ldrls	pc, [pc, r3, lsl #2]
87802cfc:	ea0000f0 	b	878030c4 <vsnprintf+0x728>
87802d00:	87802ff8 			; <UNDEFINED> instruction: 0x87802ff8
87802d04:	878030c4 	strhi	r3, [r0, r4, asr #1]
87802d08:	878030c4 	strhi	r3, [r0, r4, asr #1]
87802d0c:	878030c4 	strhi	r3, [r0, r4, asr #1]
87802d10:	878030c4 	strhi	r3, [r0, r4, asr #1]
87802d14:	878030c4 	strhi	r3, [r0, r4, asr #1]
87802d18:	878030c4 	strhi	r3, [r0, r4, asr #1]
87802d1c:	878030c4 	strhi	r3, [r0, r4, asr #1]
87802d20:	878030c4 	strhi	r3, [r0, r4, asr #1]
87802d24:	878030c4 	strhi	r3, [r0, r4, asr #1]
87802d28:	878030c4 	strhi	r3, [r0, r4, asr #1]
87802d2c:	878030c4 	strhi	r3, [r0, r4, asr #1]
87802d30:	878030c4 	strhi	r3, [r0, r4, asr #1]
87802d34:	878030c4 	strhi	r3, [r0, r4, asr #1]
87802d38:	878030c4 	strhi	r3, [r0, r4, asr #1]
87802d3c:	878030c4 	strhi	r3, [r0, r4, asr #1]
87802d40:	878030c4 	strhi	r3, [r0, r4, asr #1]
87802d44:	878030c4 	strhi	r3, [r0, r4, asr #1]
87802d48:	878030c4 	strhi	r3, [r0, r4, asr #1]
87802d4c:	878030c4 	strhi	r3, [r0, r4, asr #1]
87802d50:	878030c4 	strhi	r3, [r0, r4, asr #1]
87802d54:	878030c4 	strhi	r3, [r0, r4, asr #1]
87802d58:	878030c4 	strhi	r3, [r0, r4, asr #1]
87802d5c:	878030c4 	strhi	r3, [r0, r4, asr #1]
87802d60:	878030c4 	strhi	r3, [r0, r4, asr #1]
87802d64:	878030c4 	strhi	r3, [r0, r4, asr #1]
87802d68:	878030c4 	strhi	r3, [r0, r4, asr #1]
87802d6c:	878030c4 	strhi	r3, [r0, r4, asr #1]
87802d70:	878030c4 	strhi	r3, [r0, r4, asr #1]
87802d74:	878030c4 	strhi	r3, [r0, r4, asr #1]
87802d78:	878030c4 	strhi	r3, [r0, r4, asr #1]
87802d7c:	878030c4 	strhi	r3, [r0, r4, asr #1]
87802d80:	878030c4 	strhi	r3, [r0, r4, asr #1]
87802d84:	878030c4 	strhi	r3, [r0, r4, asr #1]
87802d88:	878030c4 	strhi	r3, [r0, r4, asr #1]
87802d8c:	878030c4 	strhi	r3, [r0, r4, asr #1]
87802d90:	878030c4 	strhi	r3, [r0, r4, asr #1]
87802d94:	878030c4 	strhi	r3, [r0, r4, asr #1]
87802d98:	878030c4 	strhi	r3, [r0, r4, asr #1]
87802d9c:	878030c4 	strhi	r3, [r0, r4, asr #1]
87802da0:	878030c4 	strhi	r3, [r0, r4, asr #1]
87802da4:	878030c4 	strhi	r3, [r0, r4, asr #1]
87802da8:	878030c4 	strhi	r3, [r0, r4, asr #1]
87802dac:	878030c4 	strhi	r3, [r0, r4, asr #1]
87802db0:	878030c4 	strhi	r3, [r0, r4, asr #1]
87802db4:	878030c4 	strhi	r3, [r0, r4, asr #1]
87802db8:	878030c4 	strhi	r3, [r0, r4, asr #1]
87802dbc:	878030c4 	strhi	r3, [r0, r4, asr #1]
87802dc0:	878030c4 	strhi	r3, [r0, r4, asr #1]
87802dc4:	878030c4 	strhi	r3, [r0, r4, asr #1]
87802dc8:	878030c4 	strhi	r3, [r0, r4, asr #1]
87802dcc:	8780323c 			; <UNDEFINED> instruction: 0x8780323c
87802dd0:	878030c4 	strhi	r3, [r0, r4, asr #1]
87802dd4:	878030c4 	strhi	r3, [r0, r4, asr #1]
87802dd8:	878030c4 	strhi	r3, [r0, r4, asr #1]
87802ddc:	878030c4 	strhi	r3, [r0, r4, asr #1]
87802de0:	878030c4 	strhi	r3, [r0, r4, asr #1]
87802de4:	878030c4 	strhi	r3, [r0, r4, asr #1]
87802de8:	878030c4 	strhi	r3, [r0, r4, asr #1]
87802dec:	878030c4 	strhi	r3, [r0, r4, asr #1]
87802df0:	878030c4 	strhi	r3, [r0, r4, asr #1]
87802df4:	878030c4 	strhi	r3, [r0, r4, asr #1]
87802df8:	87802f94 			; <UNDEFINED> instruction: 0x87802f94
87802dfc:	8780324c 	strhi	r3, [r0, ip, asr #4]
87802e00:	878030c4 	strhi	r3, [r0, r4, asr #1]
87802e04:	878030c4 	strhi	r3, [r0, r4, asr #1]
87802e08:	878030c4 	strhi	r3, [r0, r4, asr #1]
87802e0c:	878030c4 	strhi	r3, [r0, r4, asr #1]
87802e10:	8780324c 	strhi	r3, [r0, ip, asr #4]
87802e14:	878030c4 	strhi	r3, [r0, r4, asr #1]
87802e18:	878030c4 	strhi	r3, [r0, r4, asr #1]
87802e1c:	878030c4 	strhi	r3, [r0, r4, asr #1]
87802e20:	878030c4 	strhi	r3, [r0, r4, asr #1]
87802e24:	878030f8 			; <UNDEFINED> instruction: 0x878030f8
87802e28:	87803230 			; <UNDEFINED> instruction: 0x87803230
87802e2c:	87802f4c 	strhi	r2, [r0, ip, asr #30]
87802e30:	878030c4 	strhi	r3, [r0, r4, asr #1]
87802e34:	878030c4 	strhi	r3, [r0, r4, asr #1]
87802e38:	87802ea8 	strhi	r2, [r0, r8, lsr #29]
87802e3c:	878030c4 	strhi	r3, [r0, r4, asr #1]
87802e40:	87803110 	usada8hi	r0, r0, r1, r3
87802e44:	878030c4 	strhi	r3, [r0, r4, asr #1]
87802e48:	878030c4 	strhi	r3, [r0, r4, asr #1]
87802e4c:	87803224 	strhi	r3, [r0, r4, lsr #4]
87802e50:	e3a05000 	mov	r5, #0, 0
87802e54:	e0855105 	add	r5, r5, r5, lsl #2
87802e58:	e08c5085 	add	r5, ip, r5, lsl #1
87802e5c:	e5f0c001 	ldrb	ip, [r0, #1]!
87802e60:	e2455030 	sub	r5, r5, #48, 0	; 0x30
87802e64:	e7d8100c 	ldrb	r1, [r8, ip]
87802e68:	e1a0300c 	mov	r3, ip
87802e6c:	e3110004 	tst	r1, #4, 0
87802e70:	1afffff7 	bne	87802e54 <vsnprintf+0x4b8>
87802e74:	eaffff17 	b	87802ad8 <vsnprintf+0x13c>
87802e78:	e1a04009 	mov	r4, r9
87802e7c:	e3a03000 	mov	r3, #0, 0
87802e80:	e5c43000 	strb	r3, [r4]
87802e84:	e28dd024 	add	sp, sp, #36, 0	; 0x24
87802e88:	e8bd8ff0 	pop	{r4, r5, r6, r7, r8, r9, sl, fp, pc}
87802e8c:	e1a0a000 	mov	sl, r0
87802e90:	e3e01000 	mvn	r1, #0, 0
87802e94:	eaffff20 	b	87802b1c <vsnprintf+0x180>
87802e98:	e280a002 	add	sl, r0, #2, 0
87802e9c:	e5d03002 	ldrb	r3, [r0, #2]
87802ea0:	e3a0104c 	mov	r1, #76, 0	; 0x4c
87802ea4:	eaffff1c 	b	87802b1c <vsnprintf+0x180>
87802ea8:	e4973004 	ldr	r3, [r7], #4
87802eac:	e1a0100c 	mov	r1, ip
87802eb0:	e58d201c 	str	r2, [sp, #28]
87802eb4:	e59d2014 	ldr	r2, [sp, #20]
87802eb8:	e3530b01 	cmp	r3, #1024	; 0x400
87802ebc:	31a03002 	movcc	r3, r2
87802ec0:	e1a00003 	mov	r0, r3
87802ec4:	e58d3018 	str	r3, [sp, #24]
87802ec8:	ebfffb49 	bl	87801bf4 <strnlen>
87802ecc:	e59d201c 	ldr	r2, [sp, #28]
87802ed0:	e59d3018 	ldr	r3, [sp, #24]
87802ed4:	e3120010 	tst	r2, #16, 0
87802ed8:	e2452001 	sub	r2, r5, #1, 0
87802edc:	0a0000b1 	beq	878031a8 <vsnprintf+0x80c>
87802ee0:	e3500000 	cmp	r0, #0, 0
87802ee4:	da0000e8 	ble	8780328c <vsnprintf+0x8f0>
87802ee8:	e084c000 	add	ip, r4, r0
87802eec:	e1540006 	cmp	r4, r6
87802ef0:	e2844001 	add	r4, r4, #1, 0
87802ef4:	95d31000 	ldrbls	r1, [r3]
87802ef8:	e2833001 	add	r3, r3, #1, 0
87802efc:	95441001 	strbls	r1, [r4, #-1]
87802f00:	e154000c 	cmp	r4, ip
87802f04:	1afffff8 	bne	87802eec <vsnprintf+0x550>
87802f08:	e1550000 	cmp	r5, r0
87802f0c:	e28a1001 	add	r1, sl, #1, 0
87802f10:	d5da0001 	ldrble	r0, [sl, #1]
87802f14:	d1a0400c 	movle	r4, ip
87802f18:	dafffeba 	ble	87802a08 <vsnprintf+0x6c>
87802f1c:	e2822001 	add	r2, r2, #1, 0
87802f20:	e1a0400c 	mov	r4, ip
87802f24:	e08c2002 	add	r2, ip, r2
87802f28:	e3a0c020 	mov	ip, #32, 0
87802f2c:	e1540006 	cmp	r4, r6
87802f30:	e2844001 	add	r4, r4, #1, 0
87802f34:	9544c001 	strbls	ip, [r4, #-1]
87802f38:	e0423004 	sub	r3, r2, r4
87802f3c:	e1500003 	cmp	r0, r3
87802f40:	bafffff9 	blt	87802f2c <vsnprintf+0x590>
87802f44:	e5da0001 	ldrb	r0, [sl, #1]
87802f48:	eafffeae 	b	87802a08 <vsnprintf+0x6c>
87802f4c:	e497e004 	ldr	lr, [r7], #4
87802f50:	e3750001 	cmn	r5, #1, 0
87802f54:	03822001 	orreq	r2, r2, #1, 0
87802f58:	03a05008 	moveq	r5, #8, 0
87802f5c:	e58dc008 	str	ip, [sp, #8]
87802f60:	e3a0c010 	mov	ip, #16, 0
87802f64:	e1a00004 	mov	r0, r4
87802f68:	e58d200c 	str	r2, [sp, #12]
87802f6c:	e1a01006 	mov	r1, r6
87802f70:	e3a03000 	mov	r3, #0, 0
87802f74:	e1a0200e 	mov	r2, lr
87802f78:	e58d5004 	str	r5, [sp, #4]
87802f7c:	e58dc000 	str	ip, [sp]
87802f80:	ebfffc4a 	bl	878020b0 <number>
87802f84:	e28a1001 	add	r1, sl, #1, 0
87802f88:	e1a04000 	mov	r4, r0
87802f8c:	e5da0001 	ldrb	r0, [sl, #1]
87802f90:	eafffe9c 	b	87802a08 <vsnprintf+0x6c>
87802f94:	e3120010 	tst	r2, #16, 0
87802f98:	e2450001 	sub	r0, r5, #1, 0
87802f9c:	0a000092 	beq	878031ec <vsnprintf+0x850>
87802fa0:	e1540006 	cmp	r4, r6
87802fa4:	e287c004 	add	ip, r7, #4, 0
87802fa8:	8a000001 	bhi	87802fb4 <vsnprintf+0x618>
87802fac:	e5973000 	ldr	r3, [r7]
87802fb0:	e5c43000 	strb	r3, [r4]
87802fb4:	e3500000 	cmp	r0, #0, 0
87802fb8:	e284e001 	add	lr, r4, #1, 0
87802fbc:	c2802001 	addgt	r2, r0, #1, 0
87802fc0:	e28a1001 	add	r1, sl, #1, 0
87802fc4:	c0844002 	addgt	r4, r4, r2
87802fc8:	c1a0300e 	movgt	r3, lr
87802fcc:	c3a02020 	movgt	r2, #32, 0
87802fd0:	da0000a7 	ble	87803274 <vsnprintf+0x8d8>
87802fd4:	e1530006 	cmp	r3, r6
87802fd8:	e2833001 	add	r3, r3, #1, 0
87802fdc:	95432001 	strbls	r2, [r3, #-1]
87802fe0:	e1530004 	cmp	r3, r4
87802fe4:	1afffffa 	bne	87802fd4 <vsnprintf+0x638>
87802fe8:	e08e4000 	add	r4, lr, r0
87802fec:	e1a0700c 	mov	r7, ip
87802ff0:	e5da0001 	ldrb	r0, [sl, #1]
87802ff4:	eafffe83 	b	87802a08 <vsnprintf+0x6c>
87802ff8:	e1560004 	cmp	r6, r4
87802ffc:	e28a1001 	add	r1, sl, #1, 0
87803000:	23a03025 	movcs	r3, #37, 0	; 0x25
87803004:	e2844001 	add	r4, r4, #1, 0
87803008:	25443001 	strbcs	r3, [r4, #-1]
8780300c:	e5da0001 	ldrb	r0, [sl, #1]
87803010:	eafffe7c 	b	87802a08 <vsnprintf+0x6c>
87803014:	e3a0e008 	mov	lr, #8, 0
87803018:	e351004c 	cmp	r1, #76, 0	; 0x4c
8780301c:	0a000019 	beq	87803088 <vsnprintf+0x6ec>
87803020:	e351006c 	cmp	r1, #108, 0	; 0x6c
87803024:	e2873004 	add	r3, r7, #4, 0
87803028:	0a00003a 	beq	87803118 <vsnprintf+0x77c>
8780302c:	e3c10020 	bic	r0, r1, #32, 0
87803030:	e350005a 	cmp	r0, #90, 0	; 0x5a
87803034:	1a000044 	bne	8780314c <vsnprintf+0x7b0>
87803038:	e5970000 	ldr	r0, [r7]
8780303c:	e3a01000 	mov	r1, #0, 0
87803040:	e1a07003 	mov	r7, r3
87803044:	e58d200c 	str	r2, [sp, #12]
87803048:	e1a03001 	mov	r3, r1
8780304c:	e1a02000 	mov	r2, r0
87803050:	e1a01006 	mov	r1, r6
87803054:	e1a00004 	mov	r0, r4
87803058:	e58dc008 	str	ip, [sp, #8]
8780305c:	e58d5004 	str	r5, [sp, #4]
87803060:	e58de000 	str	lr, [sp]
87803064:	ebfffc11 	bl	878020b0 <number>
87803068:	e28a1001 	add	r1, sl, #1, 0
8780306c:	e1a04000 	mov	r4, r0
87803070:	e5da0001 	ldrb	r0, [sl, #1]
87803074:	eafffe63 	b	87802a08 <vsnprintf+0x6c>
87803078:	e351004c 	cmp	r1, #76, 0	; 0x4c
8780307c:	e3822040 	orr	r2, r2, #64, 0	; 0x40
87803080:	e3a0e010 	mov	lr, #16, 0
87803084:	1affffe5 	bne	87803020 <vsnprintf+0x684>
87803088:	e0c700d8 	ldrd	r0, [r7], #8
8780308c:	eaffffec 	b	87803044 <vsnprintf+0x6a8>
87803090:	e3822002 	orr	r2, r2, #2, 0
87803094:	e3a0e00a 	mov	lr, #10, 0
87803098:	eaffffde 	b	87803018 <vsnprintf+0x67c>
8780309c:	e3a0e010 	mov	lr, #16, 0
878030a0:	eaffffdc 	b	87803018 <vsnprintf+0x67c>
878030a4:	e3a0e00a 	mov	lr, #10, 0
878030a8:	eaffffda 	b	87803018 <vsnprintf+0x67c>
878030ac:	e4973004 	ldr	r3, [r7], #4
878030b0:	e0442009 	sub	r2, r4, r9
878030b4:	e28a1001 	add	r1, sl, #1, 0
878030b8:	e5832000 	str	r2, [r3]
878030bc:	e5da0001 	ldrb	r0, [sl, #1]
878030c0:	eafffe50 	b	87802a08 <vsnprintf+0x6c>
878030c4:	e1560004 	cmp	r6, r4
878030c8:	e2842001 	add	r2, r4, #1, 0
878030cc:	23a03025 	movcs	r3, #37, 0	; 0x25
878030d0:	25c43000 	strbcs	r3, [r4]
878030d4:	e5da3000 	ldrb	r3, [sl]
878030d8:	e3530000 	cmp	r3, #0, 0
878030dc:	0afffeeb 	beq	87802c90 <vsnprintf+0x2f4>
878030e0:	e1520006 	cmp	r2, r6
878030e4:	e2844002 	add	r4, r4, #2, 0
878030e8:	95443001 	strbls	r3, [r4, #-1]
878030ec:	e28a1001 	add	r1, sl, #1, 0
878030f0:	e5da0001 	ldrb	r0, [sl, #1]
878030f4:	eafffe43 	b	87802a08 <vsnprintf+0x6c>
878030f8:	e4972004 	ldr	r2, [r7], #4
878030fc:	e0443009 	sub	r3, r4, r9
87803100:	e2801002 	add	r1, r0, #2, 0
87803104:	e5823000 	str	r3, [r2]
87803108:	e5d00002 	ldrb	r0, [r0, #2]
8780310c:	eafffe3d 	b	87802a08 <vsnprintf+0x6c>
87803110:	e2873004 	add	r3, r7, #4, 0
87803114:	e3a0e00a 	mov	lr, #10, 0
87803118:	e3120002 	tst	r2, #2, 0
8780311c:	e5970000 	ldr	r0, [r7]
87803120:	e1a07003 	mov	r7, r3
87803124:	0a000006 	beq	87803144 <vsnprintf+0x7a8>
87803128:	e1a01fc0 	asr	r1, r0, #31
8780312c:	eaffffc4 	b	87803044 <vsnprintf+0x6a8>
87803130:	e3510000 	cmp	r1, #0, 0
87803134:	e5970000 	ldr	r0, [r7]
87803138:	e1a07003 	mov	r7, r3
8780313c:	1a000035 	bne	87803218 <vsnprintf+0x87c>
87803140:	e6ff0070 	uxth	r0, r0
87803144:	e3a01000 	mov	r1, #0, 0
87803148:	eaffffbd 	b	87803044 <vsnprintf+0x6a8>
8780314c:	e3510068 	cmp	r1, #104, 0	; 0x68
87803150:	e2021002 	and	r1, r2, #2, 0
87803154:	0afffff5 	beq	87803130 <vsnprintf+0x794>
87803158:	e3510000 	cmp	r1, #0, 0
8780315c:	e5970000 	ldr	r0, [r7]
87803160:	e1a07003 	mov	r7, r3
87803164:	1affffef 	bne	87803128 <vsnprintf+0x78c>
87803168:	eafffff5 	b	87803144 <vsnprintf+0x7a8>
8780316c:	e3a0c000 	mov	ip, #0, 0
87803170:	e5f13001 	ldrb	r3, [r1, #1]!
87803174:	e08cc10c 	add	ip, ip, ip, lsl #2
87803178:	e08ec08c 	add	ip, lr, ip, lsl #1
8780317c:	e7d80003 	ldrb	r0, [r8, r3]
87803180:	e1a0e003 	mov	lr, r3
87803184:	e24cc030 	sub	ip, ip, #48, 0	; 0x30
87803188:	e3100004 	tst	r0, #4, 0
8780318c:	1afffff7 	bne	87803170 <vsnprintf+0x7d4>
87803190:	e1cccfcc 	bic	ip, ip, ip, asr #31
87803194:	e1a00001 	mov	r0, r1
87803198:	eafffe51 	b	87802ae4 <vsnprintf+0x148>
8780319c:	e3a00000 	mov	r0, #0, 0
878031a0:	e28dd024 	add	sp, sp, #36, 0	; 0x24
878031a4:	e8bd8ff0 	pop	{r4, r5, r6, r7, r8, r9, sl, fp, pc}
878031a8:	e1550000 	cmp	r5, r0
878031ac:	d2451002 	suble	r1, r5, #2, 0
878031b0:	d1a05002 	movle	r5, r2
878031b4:	d1a02001 	movle	r2, r1
878031b8:	daffff48 	ble	87802ee0 <vsnprintf+0x544>
878031bc:	e0451000 	sub	r1, r5, r0
878031c0:	e3a0c020 	mov	ip, #32, 0
878031c4:	e0841001 	add	r1, r4, r1
878031c8:	e1540006 	cmp	r4, r6
878031cc:	e2844001 	add	r4, r4, #1, 0
878031d0:	9544c001 	strbls	ip, [r4, #-1]
878031d4:	e1510004 	cmp	r1, r4
878031d8:	1afffffa 	bne	878031c8 <vsnprintf+0x82c>
878031dc:	e0405005 	sub	r5, r0, r5
878031e0:	e0855002 	add	r5, r5, r2
878031e4:	e2452001 	sub	r2, r5, #1, 0
878031e8:	eaffff3c 	b	87802ee0 <vsnprintf+0x544>
878031ec:	e3500000 	cmp	r0, #0, 0
878031f0:	c0840000 	addgt	r0, r4, r0
878031f4:	c3a03020 	movgt	r3, #32, 0
878031f8:	da000017 	ble	8780325c <vsnprintf+0x8c0>
878031fc:	e1540006 	cmp	r4, r6
87803200:	e2844001 	add	r4, r4, #1, 0
87803204:	95443001 	strbls	r3, [r4, #-1]
87803208:	e1540000 	cmp	r4, r0
8780320c:	1afffffa 	bne	878031fc <vsnprintf+0x860>
87803210:	e3e00000 	mvn	r0, #0, 0
87803214:	eaffff61 	b	87802fa0 <vsnprintf+0x604>
87803218:	e6bf0070 	sxth	r0, r0
8780321c:	e1a01fc0 	asr	r1, r0, #31
87803220:	eaffff87 	b	87803044 <vsnprintf+0x6a8>
87803224:	e2873004 	add	r3, r7, #4, 0
87803228:	e3a0e010 	mov	lr, #16, 0
8780322c:	eaffffb9 	b	87803118 <vsnprintf+0x77c>
87803230:	e2873004 	add	r3, r7, #4, 0
87803234:	e3a0e008 	mov	lr, #8, 0
87803238:	eaffffb6 	b	87803118 <vsnprintf+0x77c>
8780323c:	e3822040 	orr	r2, r2, #64, 0	; 0x40
87803240:	e2873004 	add	r3, r7, #4, 0
87803244:	e3a0e010 	mov	lr, #16, 0
87803248:	eaffffb2 	b	87803118 <vsnprintf+0x77c>
8780324c:	e3822002 	orr	r2, r2, #2, 0
87803250:	e2873004 	add	r3, r7, #4, 0
87803254:	e3a0e00a 	mov	lr, #10, 0
87803258:	eaffffae 	b	87803118 <vsnprintf+0x77c>
8780325c:	e1560004 	cmp	r6, r4
87803260:	e2450002 	sub	r0, r5, #2, 0
87803264:	e287c004 	add	ip, r7, #4, 0
87803268:	2affff4f 	bcs	87802fac <vsnprintf+0x610>
8780326c:	e284e001 	add	lr, r4, #1, 0
87803270:	e28a1001 	add	r1, sl, #1, 0
87803274:	e5da0001 	ldrb	r0, [sl, #1]
87803278:	e1a0400e 	mov	r4, lr
8780327c:	e1a0700c 	mov	r7, ip
87803280:	eafffde0 	b	87802a08 <vsnprintf+0x6c>
87803284:	e1a04009 	mov	r4, r9
87803288:	eafffe82 	b	87802c98 <vsnprintf+0x2fc>
8780328c:	e1a0c004 	mov	ip, r4
87803290:	eaffff1c 	b	87802f08 <vsnprintf+0x56c>

87803294 <vscnprintf>:
87803294:	e92d4010 	push	{r4, lr}
87803298:	e1a04001 	mov	r4, r1
8780329c:	ebfffdbe 	bl	8780299c <vsnprintf>
878032a0:	e1500004 	cmp	r0, r4
878032a4:	22440001 	subcs	r0, r4, #1, 0
878032a8:	e8bd8010 	pop	{r4, pc}

878032ac <snprintf>:
878032ac:	e92d000c 	push	{r2, r3}
878032b0:	e92d4010 	push	{r4, lr}
878032b4:	e28d300c 	add	r3, sp, #12, 0
878032b8:	e59d2008 	ldr	r2, [sp, #8]
878032bc:	ebfffdb6 	bl	8780299c <vsnprintf>
878032c0:	e8bd4010 	pop	{r4, lr}
878032c4:	e28dd008 	add	sp, sp, #8, 0
878032c8:	e12fff1e 	bx	lr

878032cc <scnprintf>:
878032cc:	e92d000c 	push	{r2, r3}
878032d0:	e92d4010 	push	{r4, lr}
878032d4:	e1a04001 	mov	r4, r1
878032d8:	e28d300c 	add	r3, sp, #12, 0
878032dc:	e59d2008 	ldr	r2, [sp, #8]
878032e0:	ebfffdad 	bl	8780299c <vsnprintf>
878032e4:	e1500004 	cmp	r0, r4
878032e8:	22440001 	subcs	r0, r4, #1, 0
878032ec:	e8bd4010 	pop	{r4, lr}
878032f0:	e28dd008 	add	sp, sp, #8, 0
878032f4:	e12fff1e 	bx	lr

878032f8 <vsprintf>:
878032f8:	e1a03002 	mov	r3, r2
878032fc:	e1a02001 	mov	r2, r1
87803300:	e3e01102 	mvn	r1, #-2147483648	; 0x80000000
87803304:	eafffda4 	b	8780299c <vsnprintf>

87803308 <sprintf>:
87803308:	e92d000e 	push	{r1, r2, r3}
8780330c:	e3e01102 	mvn	r1, #-2147483648	; 0x80000000
87803310:	e52de004 	push	{lr}		; (str lr, [sp, #-4]!)
87803314:	e28d3008 	add	r3, sp, #8, 0
87803318:	e59d2004 	ldr	r2, [sp, #4]
8780331c:	ebfffd9e 	bl	8780299c <vsnprintf>
87803320:	e49de004 	pop	{lr}		; (ldr lr, [sp], #4)
87803324:	e28dd00c 	add	sp, sp, #12, 0
87803328:	e12fff1e 	bx	lr

8780332c <vsscanf>:
8780332c:	e92d4ff0 	push	{r4, r5, r6, r7, r8, r9, sl, fp, lr}
87803330:	e3a06000 	mov	r6, #0, 0
87803334:	e5d13000 	ldrb	r3, [r1]
87803338:	e3034e10 	movw	r4, #15888	; 0x3e10
8780333c:	e24dd014 	sub	sp, sp, #20, 0
87803340:	e1a08000 	mov	r8, r0
87803344:	e1a05001 	mov	r5, r1
87803348:	e1a09006 	mov	r9, r6
8780334c:	e3484780 	movt	r4, #34688	; 0x8780
87803350:	e3530000 	cmp	r3, #0, 0
87803354:	0a000009 	beq	87803380 <vsscanf+0x54>
87803358:	e5d0c000 	ldrb	ip, [r0]
8780335c:	e35c0000 	cmp	ip, #0, 0
87803360:	0a000006 	beq	87803380 <vsscanf+0x54>
87803364:	e7d41003 	ldrb	r1, [r4, r3]
87803368:	e3110020 	tst	r1, #32, 0
8780336c:	1a000006 	bne	8780338c <vsscanf+0x60>
87803370:	e3530025 	cmp	r3, #37, 0	; 0x25
87803374:	0a00001b 	beq	878033e8 <vsscanf+0xbc>
87803378:	e153000c 	cmp	r3, ip
8780337c:	0a000013 	beq	878033d0 <vsscanf+0xa4>
87803380:	e1a00006 	mov	r0, r6
87803384:	e28dd014 	add	sp, sp, #20, 0
87803388:	e8bd8ff0 	pop	{r4, r5, r6, r7, r8, r9, sl, fp, pc}
8780338c:	e5f53001 	ldrb	r3, [r5, #1]!
87803390:	e7d41003 	ldrb	r1, [r4, r3]
87803394:	e3110020 	tst	r1, #32, 0
87803398:	1afffffb 	bne	8780338c <vsscanf+0x60>
8780339c:	e7d4100c 	ldrb	r1, [r4, ip]
878033a0:	e3110020 	tst	r1, #32, 0
878033a4:	0a000003 	beq	878033b8 <vsscanf+0x8c>
878033a8:	e5f01001 	ldrb	r1, [r0, #1]!
878033ac:	e7d41001 	ldrb	r1, [r4, r1]
878033b0:	e3110020 	tst	r1, #32, 0
878033b4:	1afffffb 	bne	878033a8 <vsscanf+0x7c>
878033b8:	e3530025 	cmp	r3, #37, 0	; 0x25
878033bc:	13530000 	cmpne	r3, #0, 0
878033c0:	0a000006 	beq	878033e0 <vsscanf+0xb4>
878033c4:	e5d0c000 	ldrb	ip, [r0]
878033c8:	e153000c 	cmp	r3, ip
878033cc:	1affffeb 	bne	87803380 <vsscanf+0x54>
878033d0:	e5d53001 	ldrb	r3, [r5, #1]
878033d4:	e2800001 	add	r0, r0, #1, 0
878033d8:	e2855001 	add	r5, r5, #1, 0
878033dc:	eaffffdb 	b	87803350 <vsscanf+0x24>
878033e0:	e3530000 	cmp	r3, #0, 0
878033e4:	0affffe5 	beq	87803380 <vsscanf+0x54>
878033e8:	e5d53001 	ldrb	r3, [r5, #1]
878033ec:	e2855001 	add	r5, r5, #1, 0
878033f0:	e353002a 	cmp	r3, #42, 0	; 0x2a
878033f4:	e1a01003 	mov	r1, r3
878033f8:	e7d4c003 	ldrb	ip, [r4, r3]
878033fc:	0a000148 	beq	87803924 <vsscanf+0x5f8>
87803400:	e31c0004 	tst	ip, #4, 0
87803404:	03e0c000 	mvneq	ip, #0, 0
87803408:	1a00006a 	bne	878035b8 <vsscanf+0x28c>
8780340c:	e20310df 	and	r1, r3, #223, 0	; 0xdf
87803410:	e351005a 	cmp	r1, #90, 0	; 0x5a
87803414:	1351004c 	cmpne	r1, #76, 0	; 0x4c
87803418:	03a01001 	moveq	r1, #1, 0
8780341c:	13a01000 	movne	r1, #0, 0
87803420:	e3530068 	cmp	r3, #104, 0	; 0x68
87803424:	03811001 	orreq	r1, r1, #1, 0
87803428:	e3510000 	cmp	r1, #0, 0
8780342c:	0a000138 	beq	87803914 <vsscanf+0x5e8>
87803430:	e5d5e001 	ldrb	lr, [r5, #1]
87803434:	e2857001 	add	r7, r5, #1, 0
87803438:	e15e0003 	cmp	lr, r3
8780343c:	0a00014b 	beq	87803970 <vsscanf+0x644>
87803440:	e35e0000 	cmp	lr, #0, 0
87803444:	0affffcd 	beq	87803380 <vsscanf+0x54>
87803448:	e5d01000 	ldrb	r1, [r0]
8780344c:	e3510000 	cmp	r1, #0, 0
87803450:	0affffca 	beq	87803380 <vsscanf+0x54>
87803454:	e24ee025 	sub	lr, lr, #37, 0	; 0x25
87803458:	e2875001 	add	r5, r7, #1, 0
8780345c:	e35e0053 	cmp	lr, #83, 0	; 0x53
87803460:	979ff10e 	ldrls	pc, [pc, lr, lsl #2]
87803464:	eaffffc5 	b	87803380 <vsscanf+0x54>
87803468:	87803794 			; <UNDEFINED> instruction: 0x87803794
8780346c:	87803380 	strhi	r3, [r0, r0, lsl #7]
87803470:	87803380 	strhi	r3, [r0, r0, lsl #7]
87803474:	87803380 	strhi	r3, [r0, r0, lsl #7]
87803478:	87803380 	strhi	r3, [r0, r0, lsl #7]
8780347c:	87803380 	strhi	r3, [r0, r0, lsl #7]
87803480:	87803380 	strhi	r3, [r0, r0, lsl #7]
87803484:	87803380 	strhi	r3, [r0, r0, lsl #7]
87803488:	87803380 	strhi	r3, [r0, r0, lsl #7]
8780348c:	87803380 	strhi	r3, [r0, r0, lsl #7]
87803490:	87803380 	strhi	r3, [r0, r0, lsl #7]
87803494:	87803380 	strhi	r3, [r0, r0, lsl #7]
87803498:	87803380 	strhi	r3, [r0, r0, lsl #7]
8780349c:	87803380 	strhi	r3, [r0, r0, lsl #7]
878034a0:	87803380 	strhi	r3, [r0, r0, lsl #7]
878034a4:	87803380 	strhi	r3, [r0, r0, lsl #7]
878034a8:	87803380 	strhi	r3, [r0, r0, lsl #7]
878034ac:	87803380 	strhi	r3, [r0, r0, lsl #7]
878034b0:	87803380 	strhi	r3, [r0, r0, lsl #7]
878034b4:	87803380 	strhi	r3, [r0, r0, lsl #7]
878034b8:	87803380 	strhi	r3, [r0, r0, lsl #7]
878034bc:	87803380 	strhi	r3, [r0, r0, lsl #7]
878034c0:	87803380 	strhi	r3, [r0, r0, lsl #7]
878034c4:	87803380 	strhi	r3, [r0, r0, lsl #7]
878034c8:	87803380 	strhi	r3, [r0, r0, lsl #7]
878034cc:	87803380 	strhi	r3, [r0, r0, lsl #7]
878034d0:	87803380 	strhi	r3, [r0, r0, lsl #7]
878034d4:	87803380 	strhi	r3, [r0, r0, lsl #7]
878034d8:	87803380 	strhi	r3, [r0, r0, lsl #7]
878034dc:	87803380 	strhi	r3, [r0, r0, lsl #7]
878034e0:	87803380 	strhi	r3, [r0, r0, lsl #7]
878034e4:	87803380 	strhi	r3, [r0, r0, lsl #7]
878034e8:	87803380 	strhi	r3, [r0, r0, lsl #7]
878034ec:	87803380 	strhi	r3, [r0, r0, lsl #7]
878034f0:	87803380 	strhi	r3, [r0, r0, lsl #7]
878034f4:	87803380 	strhi	r3, [r0, r0, lsl #7]
878034f8:	87803380 	strhi	r3, [r0, r0, lsl #7]
878034fc:	87803380 	strhi	r3, [r0, r0, lsl #7]
87803500:	87803380 	strhi	r3, [r0, r0, lsl #7]
87803504:	87803380 	strhi	r3, [r0, r0, lsl #7]
87803508:	87803380 	strhi	r3, [r0, r0, lsl #7]
8780350c:	87803380 	strhi	r3, [r0, r0, lsl #7]
87803510:	87803380 	strhi	r3, [r0, r0, lsl #7]
87803514:	87803380 	strhi	r3, [r0, r0, lsl #7]
87803518:	87803380 	strhi	r3, [r0, r0, lsl #7]
8780351c:	87803380 	strhi	r3, [r0, r0, lsl #7]
87803520:	87803380 	strhi	r3, [r0, r0, lsl #7]
87803524:	87803380 	strhi	r3, [r0, r0, lsl #7]
87803528:	87803380 	strhi	r3, [r0, r0, lsl #7]
8780352c:	87803380 	strhi	r3, [r0, r0, lsl #7]
87803530:	87803380 	strhi	r3, [r0, r0, lsl #7]
87803534:	87803778 			; <UNDEFINED> instruction: 0x87803778
87803538:	87803380 	strhi	r3, [r0, r0, lsl #7]
8780353c:	87803380 	strhi	r3, [r0, r0, lsl #7]
87803540:	87803380 	strhi	r3, [r0, r0, lsl #7]
87803544:	87803380 	strhi	r3, [r0, r0, lsl #7]
87803548:	87803380 	strhi	r3, [r0, r0, lsl #7]
8780354c:	87803380 	strhi	r3, [r0, r0, lsl #7]
87803550:	87803380 	strhi	r3, [r0, r0, lsl #7]
87803554:	87803380 	strhi	r3, [r0, r0, lsl #7]
87803558:	87803380 	strhi	r3, [r0, r0, lsl #7]
8780355c:	87803380 	strhi	r3, [r0, r0, lsl #7]
87803560:	8780383c 			; <UNDEFINED> instruction: 0x8780383c
87803564:	87803888 	strhi	r3, [r0, r8, lsl #17]
87803568:	87803380 	strhi	r3, [r0, r0, lsl #7]
8780356c:	87803380 	strhi	r3, [r0, r0, lsl #7]
87803570:	87803380 	strhi	r3, [r0, r0, lsl #7]
87803574:	87803380 	strhi	r3, [r0, r0, lsl #7]
87803578:	878035e0 	strhi	r3, [r0, r0, ror #11]
8780357c:	87803380 	strhi	r3, [r0, r0, lsl #7]
87803580:	87803380 	strhi	r3, [r0, r0, lsl #7]
87803584:	87803380 	strhi	r3, [r0, r0, lsl #7]
87803588:	87803380 	strhi	r3, [r0, r0, lsl #7]
8780358c:	87803890 			; <UNDEFINED> instruction: 0x87803890
87803590:	878037a8 	strhi	r3, [r0, r8, lsr #15]
87803594:	87803380 	strhi	r3, [r0, r0, lsl #7]
87803598:	87803380 	strhi	r3, [r0, r0, lsl #7]
8780359c:	87803380 	strhi	r3, [r0, r0, lsl #7]
878035a0:	878037b0 			; <UNDEFINED> instruction: 0x878037b0
878035a4:	87803380 	strhi	r3, [r0, r0, lsl #7]
878035a8:	87803880 	strhi	r3, [r0, r0, lsl #17]
878035ac:	87803380 	strhi	r3, [r0, r0, lsl #7]
878035b0:	87803380 	strhi	r3, [r0, r0, lsl #7]
878035b4:	87803778 			; <UNDEFINED> instruction: 0x87803778
878035b8:	e3a0c000 	mov	ip, #0, 0
878035bc:	e08cc10c 	add	ip, ip, ip, lsl #2
878035c0:	e081c08c 	add	ip, r1, ip, lsl #1
878035c4:	e5f51001 	ldrb	r1, [r5, #1]!
878035c8:	e24cc030 	sub	ip, ip, #48, 0	; 0x30
878035cc:	e7d4e001 	ldrb	lr, [r4, r1]
878035d0:	e1a03001 	mov	r3, r1
878035d4:	e31e0004 	tst	lr, #4, 0
878035d8:	1afffff7 	bne	878035bc <vsscanf+0x290>
878035dc:	eaffff8a 	b	8780340c <vsscanf+0xe0>
878035e0:	e3a0c000 	mov	ip, #0, 0
878035e4:	e7d4e001 	ldrb	lr, [r4, r1]
878035e8:	e31e0020 	tst	lr, #32, 0
878035ec:	13a0b001 	movne	fp, #1, 0
878035f0:	11a0e00b 	movne	lr, fp
878035f4:	0a0000fa 	beq	878039e4 <vsscanf+0x6b8>
878035f8:	e5f01001 	ldrb	r1, [r0, #1]!
878035fc:	e7d4a001 	ldrb	sl, [r4, r1]
87803600:	e31a0020 	tst	sl, #32, 0
87803604:	1afffffb 	bne	878035f8 <vsscanf+0x2cc>
87803608:	e351002d 	cmp	r1, #45, 0	; 0x2d
8780360c:	13a0b000 	movne	fp, #0, 0
87803610:	020bb001 	andeq	fp, fp, #1, 0
87803614:	e35b0000 	cmp	fp, #0, 0
87803618:	0a000000 	beq	87803620 <vsscanf+0x2f4>
8780361c:	e5d01001 	ldrb	r1, [r0, #1]
87803620:	e3510000 	cmp	r1, #0, 0
87803624:	0affff55 	beq	87803380 <vsscanf+0x54>
87803628:	e35c0010 	cmp	ip, #16, 0
8780362c:	0a0000b4 	beq	87803904 <vsscanf+0x5d8>
87803630:	e35c000a 	cmp	ip, #10, 0
87803634:	0a0000ae 	beq	878038f4 <vsscanf+0x5c8>
87803638:	e35c0008 	cmp	ip, #8, 0
8780363c:	1a0000aa 	bne	878038ec <vsscanf+0x5c0>
87803640:	e7d4a001 	ldrb	sl, [r4, r1]
87803644:	e22aa004 	eor	sl, sl, #4, 0
87803648:	e7e0a15a 	ubfx	sl, sl, #2, #1
8780364c:	e3510037 	cmp	r1, #55, 0	; 0x37
87803650:	91a0100a 	movls	r1, sl
87803654:	838a1001 	orrhi	r1, sl, #1, 0
87803658:	e3510000 	cmp	r1, #0, 0
8780365c:	1affff47 	bne	87803380 <vsscanf+0x54>
87803660:	e1a0a002 	mov	sl, r2
87803664:	e2433048 	sub	r3, r3, #72, 0	; 0x48
87803668:	e49ab004 	ldr	fp, [sl], #4
8780366c:	e1a0200c 	mov	r2, ip
87803670:	e28d100c 	add	r1, sp, #12, 0
87803674:	e3530032 	cmp	r3, #50, 0	; 0x32
87803678:	979ff103 	ldrls	pc, [pc, r3, lsl #2]
8780367c:	ea000032 	b	8780374c <vsscanf+0x420>
87803680:	878038c4 	strhi	r3, [r0, r4, asr #17]
87803684:	8780374c 	strhi	r3, [r0, ip, asr #14]
87803688:	8780374c 	strhi	r3, [r0, ip, asr #14]
8780368c:	8780374c 	strhi	r3, [r0, ip, asr #14]
87803690:	878038b0 			; <UNDEFINED> instruction: 0x878038b0
87803694:	8780374c 	strhi	r3, [r0, ip, asr #14]
87803698:	8780374c 	strhi	r3, [r0, ip, asr #14]
8780369c:	8780374c 	strhi	r3, [r0, ip, asr #14]
878036a0:	8780374c 	strhi	r3, [r0, ip, asr #14]
878036a4:	8780374c 	strhi	r3, [r0, ip, asr #14]
878036a8:	8780374c 	strhi	r3, [r0, ip, asr #14]
878036ac:	8780374c 	strhi	r3, [r0, ip, asr #14]
878036b0:	8780374c 	strhi	r3, [r0, ip, asr #14]
878036b4:	8780374c 	strhi	r3, [r0, ip, asr #14]
878036b8:	8780374c 	strhi	r3, [r0, ip, asr #14]
878036bc:	8780374c 	strhi	r3, [r0, ip, asr #14]
878036c0:	8780374c 	strhi	r3, [r0, ip, asr #14]
878036c4:	8780374c 	strhi	r3, [r0, ip, asr #14]
878036c8:	878038a4 	strhi	r3, [r0, r4, lsr #17]
878036cc:	8780374c 	strhi	r3, [r0, ip, asr #14]
878036d0:	8780374c 	strhi	r3, [r0, ip, asr #14]
878036d4:	8780374c 	strhi	r3, [r0, ip, asr #14]
878036d8:	8780374c 	strhi	r3, [r0, ip, asr #14]
878036dc:	8780374c 	strhi	r3, [r0, ip, asr #14]
878036e0:	8780374c 	strhi	r3, [r0, ip, asr #14]
878036e4:	8780374c 	strhi	r3, [r0, ip, asr #14]
878036e8:	8780374c 	strhi	r3, [r0, ip, asr #14]
878036ec:	8780374c 	strhi	r3, [r0, ip, asr #14]
878036f0:	8780374c 	strhi	r3, [r0, ip, asr #14]
878036f4:	8780374c 	strhi	r3, [r0, ip, asr #14]
878036f8:	8780374c 	strhi	r3, [r0, ip, asr #14]
878036fc:	8780374c 	strhi	r3, [r0, ip, asr #14]
87803700:	878038d8 			; <UNDEFINED> instruction: 0x878038d8
87803704:	8780374c 	strhi	r3, [r0, ip, asr #14]
87803708:	8780374c 	strhi	r3, [r0, ip, asr #14]
8780370c:	8780374c 	strhi	r3, [r0, ip, asr #14]
87803710:	8780374c 	strhi	r3, [r0, ip, asr #14]
87803714:	8780374c 	strhi	r3, [r0, ip, asr #14]
87803718:	8780374c 	strhi	r3, [r0, ip, asr #14]
8780371c:	8780374c 	strhi	r3, [r0, ip, asr #14]
87803720:	8780374c 	strhi	r3, [r0, ip, asr #14]
87803724:	8780374c 	strhi	r3, [r0, ip, asr #14]
87803728:	8780374c 	strhi	r3, [r0, ip, asr #14]
8780372c:	8780374c 	strhi	r3, [r0, ip, asr #14]
87803730:	8780374c 	strhi	r3, [r0, ip, asr #14]
87803734:	8780374c 	strhi	r3, [r0, ip, asr #14]
87803738:	8780374c 	strhi	r3, [r0, ip, asr #14]
8780373c:	8780374c 	strhi	r3, [r0, ip, asr #14]
87803740:	8780374c 	strhi	r3, [r0, ip, asr #14]
87803744:	8780374c 	strhi	r3, [r0, ip, asr #14]
87803748:	878038a4 	strhi	r3, [r0, r4, lsr #17]
8780374c:	e35e0000 	cmp	lr, #0, 0
87803750:	0a000053 	beq	878038a4 <vsscanf+0x578>
87803754:	ebfffc18 	bl	878027bc <simple_strtol>
87803758:	e58b0000 	str	r0, [fp]
8780375c:	e59d000c 	ldr	r0, [sp, #12]
87803760:	e2866001 	add	r6, r6, #1, 0
87803764:	e3500000 	cmp	r0, #0, 0
87803768:	0affff04 	beq	87803380 <vsscanf+0x54>
8780376c:	e5d73001 	ldrb	r3, [r7, #1]
87803770:	e1a0200a 	mov	r2, sl
87803774:	eafffef5 	b	87803350 <vsscanf+0x24>
87803778:	e3a0c010 	mov	ip, #16, 0
8780377c:	e7d4e001 	ldrb	lr, [r4, r1]
87803780:	e21ee020 	ands	lr, lr, #32, 0
87803784:	13a0b000 	movne	fp, #0, 0
87803788:	11a0e00b 	movne	lr, fp
8780378c:	1affff99 	bne	878035f8 <vsscanf+0x2cc>
87803790:	eaffffa4 	b	87803628 <vsscanf+0x2fc>
87803794:	e3510025 	cmp	r1, #37, 0	; 0x25
87803798:	1afffef8 	bne	87803380 <vsscanf+0x54>
8780379c:	e2800001 	add	r0, r0, #1, 0
878037a0:	e5d73001 	ldrb	r3, [r7, #1]
878037a4:	eafffee9 	b	87803350 <vsscanf+0x24>
878037a8:	e3a0c008 	mov	ip, #8, 0
878037ac:	eafffff2 	b	8780377c <vsscanf+0x450>
878037b0:	e1a03002 	mov	r3, r2
878037b4:	e37c0001 	cmn	ip, #1, 0
878037b8:	e493b004 	ldr	fp, [r3], #4
878037bc:	e58d3004 	str	r3, [sp, #4]
878037c0:	0a000082 	beq	878039d0 <vsscanf+0x6a4>
878037c4:	e7d43001 	ldrb	r3, [r4, r1]
878037c8:	e3130020 	tst	r3, #32, 0
878037cc:	0a000005 	beq	878037e8 <vsscanf+0x4bc>
878037d0:	e5f01001 	ldrb	r1, [r0, #1]!
878037d4:	e7d43001 	ldrb	r3, [r4, r1]
878037d8:	e3130020 	tst	r3, #32, 0
878037dc:	1afffffb 	bne	878037d0 <vsscanf+0x4a4>
878037e0:	e3510000 	cmp	r1, #0, 0
878037e4:	0a000082 	beq	878039f4 <vsscanf+0x6c8>
878037e8:	e35c0000 	cmp	ip, #0, 0
878037ec:	0a000080 	beq	878039f4 <vsscanf+0x6c8>
878037f0:	e2802001 	add	r2, r0, #1, 0
878037f4:	e1a0300b 	mov	r3, fp
878037f8:	ea000004 	b	87803810 <vsscanf+0x4e4>
878037fc:	e7d4a001 	ldrb	sl, [r4, r1]
87803800:	e31a0020 	tst	sl, #32, 0
87803804:	1a000007 	bne	87803828 <vsscanf+0x4fc>
87803808:	e17e000c 	cmn	lr, ip
8780380c:	0a000005 	beq	87803828 <vsscanf+0x4fc>
87803810:	e4c31001 	strb	r1, [r3], #1
87803814:	e1a00002 	mov	r0, r2
87803818:	e4d21001 	ldrb	r1, [r2], #1
8780381c:	e04be003 	sub	lr, fp, r3
87803820:	e3510000 	cmp	r1, #0, 0
87803824:	1afffff4 	bne	878037fc <vsscanf+0x4d0>
87803828:	e5c39000 	strb	r9, [r3]
8780382c:	e2866001 	add	r6, r6, #1, 0
87803830:	e5d73001 	ldrb	r3, [r7, #1]
87803834:	e59d2004 	ldr	r2, [sp, #4]
87803838:	eafffec4 	b	87803350 <vsscanf+0x24>
8780383c:	e37c0001 	cmn	ip, #1, 0
87803840:	e492e004 	ldr	lr, [r2], #4
87803844:	0a00005e 	beq	878039c4 <vsscanf+0x698>
87803848:	e080c00c 	add	ip, r0, ip
8780384c:	e2803001 	add	r3, r0, #1, 0
87803850:	e1a0a001 	mov	sl, r1
87803854:	e04c1003 	sub	r1, ip, r3
87803858:	e4cea001 	strb	sl, [lr], #1
8780385c:	e3510000 	cmp	r1, #0, 0
87803860:	e1a00003 	mov	r0, r3
87803864:	da000002 	ble	87803874 <vsscanf+0x548>
87803868:	e4d3a001 	ldrb	sl, [r3], #1
8780386c:	e35a0000 	cmp	sl, #0, 0
87803870:	1afffff7 	bne	87803854 <vsscanf+0x528>
87803874:	e2866001 	add	r6, r6, #1, 0
87803878:	e5d73001 	ldrb	r3, [r7, #1]
8780387c:	eafffeb3 	b	87803350 <vsscanf+0x24>
87803880:	e3a0c00a 	mov	ip, #10, 0
87803884:	eaffffbc 	b	8780377c <vsscanf+0x450>
87803888:	e3a0c00a 	mov	ip, #10, 0
8780388c:	eaffff54 	b	878035e4 <vsscanf+0x2b8>
87803890:	e4921004 	ldr	r1, [r2], #4
87803894:	e0403008 	sub	r3, r0, r8
87803898:	e5813000 	str	r3, [r1]
8780389c:	e5d73001 	ldrb	r3, [r7, #1]
878038a0:	eafffeaa 	b	87803350 <vsscanf+0x24>
878038a4:	ebfffb6b 	bl	87802658 <simple_strtoul>
878038a8:	e58b0000 	str	r0, [fp]
878038ac:	eaffffaa 	b	8780375c <vsscanf+0x430>
878038b0:	e35e0000 	cmp	lr, #0, 0
878038b4:	0a00003b 	beq	878039a8 <vsscanf+0x67c>
878038b8:	ebfffc2d 	bl	87802974 <simple_strtoll>
878038bc:	e1cb00f0 	strd	r0, [fp]
878038c0:	eaffffa5 	b	8780375c <vsscanf+0x430>
878038c4:	e35e0000 	cmp	lr, #0, 0
878038c8:	0a000033 	beq	8780399c <vsscanf+0x670>
878038cc:	ebfffbba 	bl	878027bc <simple_strtol>
878038d0:	e5cb0000 	strb	r0, [fp]
878038d4:	eaffffa0 	b	8780375c <vsscanf+0x430>
878038d8:	e35e0000 	cmp	lr, #0, 0
878038dc:	0a00002b 	beq	87803990 <vsscanf+0x664>
878038e0:	ebfffbb5 	bl	878027bc <simple_strtol>
878038e4:	e1cb00b0 	strh	r0, [fp]
878038e8:	eaffff9b 	b	8780375c <vsscanf+0x430>
878038ec:	e35c0000 	cmp	ip, #0, 0
878038f0:	1affff5a 	bne	87803660 <vsscanf+0x334>
878038f4:	e7d41001 	ldrb	r1, [r4, r1]
878038f8:	e3110004 	tst	r1, #4, 0
878038fc:	1affff57 	bne	87803660 <vsscanf+0x334>
87803900:	eafffe9e 	b	87803380 <vsscanf+0x54>
87803904:	e7d41001 	ldrb	r1, [r4, r1]
87803908:	e3110044 	tst	r1, #68, 0	; 0x44
8780390c:	1affff53 	bne	87803660 <vsscanf+0x334>
87803910:	eafffe9a 	b	87803380 <vsscanf+0x54>
87803914:	e1a0e003 	mov	lr, r3
87803918:	e1a07005 	mov	r7, r5
8780391c:	e3e03000 	mvn	r3, #0, 0
87803920:	eafffec6 	b	87803440 <vsscanf+0x114>
87803924:	e31c0020 	tst	ip, #32, 0
87803928:	1a000006 	bne	87803948 <vsscanf+0x61c>
8780392c:	e5f53001 	ldrb	r3, [r5, #1]!
87803930:	e7d41003 	ldrb	r1, [r4, r3]
87803934:	e293c000 	adds	ip, r3, #0, 0
87803938:	13a0c001 	movne	ip, #1, 0
8780393c:	e2211020 	eor	r1, r1, #32, 0
87803940:	e01c12a1 	ands	r1, ip, r1, lsr #5
87803944:	1afffff8 	bne	8780392c <vsscanf+0x600>
87803948:	e5d01000 	ldrb	r1, [r0]
8780394c:	ea000000 	b	87803954 <vsscanf+0x628>
87803950:	e5f01001 	ldrb	r1, [r0, #1]!
87803954:	e7d4c001 	ldrb	ip, [r4, r1]
87803958:	e2911000 	adds	r1, r1, #0, 0
8780395c:	13a01001 	movne	r1, #1, 0
87803960:	e22cc020 	eor	ip, ip, #32, 0
87803964:	e01112ac 	ands	r1, r1, ip, lsr #5
87803968:	1afffff8 	bne	87803950 <vsscanf+0x624>
8780396c:	eafffe77 	b	87803350 <vsscanf+0x24>
87803970:	e3530068 	cmp	r3, #104, 0	; 0x68
87803974:	0a00000e 	beq	878039b4 <vsscanf+0x688>
87803978:	e353006c 	cmp	r3, #108, 0	; 0x6c
8780397c:	11a0e003 	movne	lr, r3
87803980:	02857002 	addeq	r7, r5, #2, 0
87803984:	05d5e002 	ldrbeq	lr, [r5, #2]
87803988:	03a0304c 	moveq	r3, #76, 0	; 0x4c
8780398c:	eafffeab 	b	87803440 <vsscanf+0x114>
87803990:	ebfffb30 	bl	87802658 <simple_strtoul>
87803994:	e1cb00b0 	strh	r0, [fp]
87803998:	eaffff6f 	b	8780375c <vsscanf+0x430>
8780399c:	ebfffb2d 	bl	87802658 <simple_strtoul>
878039a0:	e5cb0000 	strb	r0, [fp]
878039a4:	eaffff6c 	b	8780375c <vsscanf+0x430>
878039a8:	ebfffb8c 	bl	878027e0 <simple_strtoull>
878039ac:	e1cb00f0 	strd	r0, [fp]
878039b0:	eaffff69 	b	8780375c <vsscanf+0x430>
878039b4:	e2857002 	add	r7, r5, #2, 0
878039b8:	e5d5e002 	ldrb	lr, [r5, #2]
878039bc:	e3a03048 	mov	r3, #72, 0	; 0x48
878039c0:	eafffe9e 	b	87803440 <vsscanf+0x114>
878039c4:	e2800001 	add	r0, r0, #1, 0
878039c8:	e5ce1000 	strb	r1, [lr]
878039cc:	eaffffa8 	b	87803874 <vsscanf+0x548>
878039d0:	e7d43001 	ldrb	r3, [r4, r1]
878039d4:	e3e0c102 	mvn	ip, #-2147483648	; 0x80000000
878039d8:	e3130020 	tst	r3, #32, 0
878039dc:	1affff7b 	bne	878037d0 <vsscanf+0x4a4>
878039e0:	eaffff82 	b	878037f0 <vsscanf+0x4c4>
878039e4:	e351002d 	cmp	r1, #45, 0	; 0x2d
878039e8:	e3a0e001 	mov	lr, #1, 0
878039ec:	0affff0a 	beq	8780361c <vsscanf+0x2f0>
878039f0:	eaffff0e 	b	87803630 <vsscanf+0x304>
878039f4:	e1a0300b 	mov	r3, fp
878039f8:	eaffff8a 	b	87803828 <vsscanf+0x4fc>

878039fc <sscanf>:
878039fc:	e92d000e 	push	{r1, r2, r3}
87803a00:	e52de004 	push	{lr}		; (str lr, [sp, #-4]!)
87803a04:	e28d2008 	add	r2, sp, #8, 0
87803a08:	e59d1004 	ldr	r1, [sp, #4]
87803a0c:	ebfffe46 	bl	8780332c <vsscanf>
87803a10:	e49de004 	pop	{lr}		; (ldr lr, [sp], #4)
87803a14:	e28dd00c 	add	sp, sp, #12, 0
87803a18:	e12fff1e 	bx	lr

87803a1c <__udivsi3>:
87803a1c:	e2512001 	subs	r2, r1, #1, 0
87803a20:	012fff1e 	bxeq	lr
87803a24:	3a000023 	bcc	87803ab8 <__udivsi3+0x9c>
87803a28:	e1500001 	cmp	r0, r1
87803a2c:	9a00001a 	bls	87803a9c <__udivsi3+0x80>
87803a30:	e1110002 	tst	r1, r2
87803a34:	0a00001b 	beq	87803aa8 <__udivsi3+0x8c>
87803a38:	e16f3f11 	clz	r3, r1
87803a3c:	e16f2f10 	clz	r2, r0
87803a40:	e0432002 	sub	r2, r3, r2
87803a44:	e3a03001 	mov	r3, #1, 0
87803a48:	e1a01211 	lsl	r1, r1, r2
87803a4c:	e1a03213 	lsl	r3, r3, r2
87803a50:	e3a02000 	mov	r2, #0, 0
87803a54:	e1500001 	cmp	r0, r1
87803a58:	20400001 	subcs	r0, r0, r1
87803a5c:	21822003 	orrcs	r2, r2, r3
87803a60:	e15000a1 	cmp	r0, r1, lsr #1
87803a64:	204000a1 	subcs	r0, r0, r1, lsr #1
87803a68:	218220a3 	orrcs	r2, r2, r3, lsr #1
87803a6c:	e1500121 	cmp	r0, r1, lsr #2
87803a70:	20400121 	subcs	r0, r0, r1, lsr #2
87803a74:	21822123 	orrcs	r2, r2, r3, lsr #2
87803a78:	e15001a1 	cmp	r0, r1, lsr #3
87803a7c:	204001a1 	subcs	r0, r0, r1, lsr #3
87803a80:	218221a3 	orrcs	r2, r2, r3, lsr #3
87803a84:	e3500000 	cmp	r0, #0, 0
87803a88:	11b03223 	lsrsne	r3, r3, #4
87803a8c:	11a01221 	lsrne	r1, r1, #4
87803a90:	1affffef 	bne	87803a54 <__udivsi3+0x38>
87803a94:	e1a00002 	mov	r0, r2
87803a98:	e12fff1e 	bx	lr
87803a9c:	03a00001 	moveq	r0, #1, 0
87803aa0:	13a00000 	movne	r0, #0, 0
87803aa4:	e12fff1e 	bx	lr
87803aa8:	e16f2f11 	clz	r2, r1
87803aac:	e262201f 	rsb	r2, r2, #31, 0
87803ab0:	e1a00230 	lsr	r0, r0, r2
87803ab4:	e12fff1e 	bx	lr
87803ab8:	e3500000 	cmp	r0, #0, 0
87803abc:	13e00000 	mvnne	r0, #0, 0
87803ac0:	ea00004b 	b	87803bf4 <__aeabi_idiv0>

87803ac4 <__aeabi_uidivmod>:
87803ac4:	e3510000 	cmp	r1, #0, 0
87803ac8:	0afffffa 	beq	87803ab8 <__udivsi3+0x9c>
87803acc:	e92d4003 	push	{r0, r1, lr}
87803ad0:	ebffffd1 	bl	87803a1c <__udivsi3>
87803ad4:	e8bd4006 	pop	{r1, r2, lr}
87803ad8:	e0030092 	mul	r3, r2, r0
87803adc:	e0411003 	sub	r1, r1, r3
87803ae0:	e12fff1e 	bx	lr

87803ae4 <__aeabi_ldivmod>:
87803ae4:	e3530000 	cmp	r3, #0, 0
87803ae8:	03520000 	cmpeq	r2, #0, 0
87803aec:	1a000007 	bne	87803b10 <__aeabi_ldivmod+0x2c>
87803af0:	e3510000 	cmp	r1, #0, 0
87803af4:	b3a01102 	movlt	r1, #-2147483648	; 0x80000000
87803af8:	b3a00000 	movlt	r0, #0, 0
87803afc:	ba000002 	blt	87803b0c <__aeabi_ldivmod+0x28>
87803b00:	03500000 	cmpeq	r0, #0, 0
87803b04:	13e01102 	mvnne	r1, #-2147483648	; 0x80000000
87803b08:	13e00000 	mvnne	r0, #0, 0
87803b0c:	ea000038 	b	87803bf4 <__aeabi_idiv0>
87803b10:	e24dd008 	sub	sp, sp, #8, 0
87803b14:	e92d6000 	push	{sp, lr}
87803b18:	e3510000 	cmp	r1, #0, 0
87803b1c:	ba000006 	blt	87803b3c <__aeabi_ldivmod+0x58>
87803b20:	e3530000 	cmp	r3, #0, 0
87803b24:	ba000011 	blt	87803b70 <__aeabi_ldivmod+0x8c>
87803b28:	eb000035 	bl	87803c04 <__udivmoddi4>
87803b2c:	e59de004 	ldr	lr, [sp, #4]
87803b30:	e28dd008 	add	sp, sp, #8, 0
87803b34:	e8bd000c 	pop	{r2, r3}
87803b38:	e12fff1e 	bx	lr
87803b3c:	e2700000 	rsbs	r0, r0, #0, 0
87803b40:	e0c11081 	sbc	r1, r1, r1, lsl #1
87803b44:	e3530000 	cmp	r3, #0, 0
87803b48:	ba000011 	blt	87803b94 <__aeabi_ldivmod+0xb0>
87803b4c:	eb00002c 	bl	87803c04 <__udivmoddi4>
87803b50:	e59de004 	ldr	lr, [sp, #4]
87803b54:	e28dd008 	add	sp, sp, #8, 0
87803b58:	e8bd000c 	pop	{r2, r3}
87803b5c:	e2700000 	rsbs	r0, r0, #0, 0
87803b60:	e0c11081 	sbc	r1, r1, r1, lsl #1
87803b64:	e2722000 	rsbs	r2, r2, #0, 0
87803b68:	e0c33083 	sbc	r3, r3, r3, lsl #1
87803b6c:	e12fff1e 	bx	lr
87803b70:	e2722000 	rsbs	r2, r2, #0, 0
87803b74:	e0c33083 	sbc	r3, r3, r3, lsl #1
87803b78:	eb000021 	bl	87803c04 <__udivmoddi4>
87803b7c:	e59de004 	ldr	lr, [sp, #4]
87803b80:	e28dd008 	add	sp, sp, #8, 0
87803b84:	e8bd000c 	pop	{r2, r3}
87803b88:	e2700000 	rsbs	r0, r0, #0, 0
87803b8c:	e0c11081 	sbc	r1, r1, r1, lsl #1
87803b90:	e12fff1e 	bx	lr
87803b94:	e2722000 	rsbs	r2, r2, #0, 0
87803b98:	e0c33083 	sbc	r3, r3, r3, lsl #1
87803b9c:	eb000018 	bl	87803c04 <__udivmoddi4>
87803ba0:	e59de004 	ldr	lr, [sp, #4]
87803ba4:	e28dd008 	add	sp, sp, #8, 0
87803ba8:	e8bd000c 	pop	{r2, r3}
87803bac:	e2722000 	rsbs	r2, r2, #0, 0
87803bb0:	e0c33083 	sbc	r3, r3, r3, lsl #1
87803bb4:	e12fff1e 	bx	lr

87803bb8 <__aeabi_uldivmod>:
87803bb8:	e3530000 	cmp	r3, #0, 0
87803bbc:	03520000 	cmpeq	r2, #0, 0
87803bc0:	1a000004 	bne	87803bd8 <__aeabi_uldivmod+0x20>
87803bc4:	e3510000 	cmp	r1, #0, 0
87803bc8:	03500000 	cmpeq	r0, #0, 0
87803bcc:	13e01000 	mvnne	r1, #0, 0
87803bd0:	13e00000 	mvnne	r0, #0, 0
87803bd4:	ea000006 	b	87803bf4 <__aeabi_idiv0>
87803bd8:	e24dd008 	sub	sp, sp, #8, 0
87803bdc:	e92d6000 	push	{sp, lr}
87803be0:	eb000007 	bl	87803c04 <__udivmoddi4>
87803be4:	e59de004 	ldr	lr, [sp, #4]
87803be8:	e28dd008 	add	sp, sp, #8, 0
87803bec:	e8bd000c 	pop	{r2, r3}
87803bf0:	e12fff1e 	bx	lr

87803bf4 <__aeabi_idiv0>:
87803bf4:	e92d4002 	push	{r1, lr}
87803bf8:	e3a00008 	mov	r0, #8, 0
87803bfc:	ebfff516 	bl	8780105c <raise>
87803c00:	e8bd8002 	pop	{r1, pc}

87803c04 <__udivmoddi4>:
87803c04:	e1510003 	cmp	r1, r3
87803c08:	e92d43f0 	push	{r4, r5, r6, r7, r8, r9, lr}
87803c0c:	01500002 	cmpeq	r0, r2
87803c10:	e1a06000 	mov	r6, r0
87803c14:	e1a07001 	mov	r7, r1
87803c18:	e59de01c 	ldr	lr, [sp, #28]
87803c1c:	3a000048 	bcc	87803d44 <__udivmoddi4+0x140>
87803c20:	e3530000 	cmp	r3, #0, 0
87803c24:	016fcf12 	clzeq	ip, r2
87803c28:	116f4f13 	clzne	r4, r3
87803c2c:	028c4020 	addeq	r4, ip, #32, 0
87803c30:	e3510000 	cmp	r1, #0, 0
87803c34:	016fcf10 	clzeq	ip, r0
87803c38:	116fcf11 	clzne	ip, r1
87803c3c:	028cc020 	addeq	ip, ip, #32, 0
87803c40:	e044c00c 	sub	ip, r4, ip
87803c44:	e1a03c13 	lsl	r3, r3, ip
87803c48:	e24c1020 	sub	r1, ip, #32, 0
87803c4c:	e26c0020 	rsb	r0, ip, #32, 0
87803c50:	e1833112 	orr	r3, r3, r2, lsl r1
87803c54:	e1833032 	orr	r3, r3, r2, lsr r0
87803c58:	e1a02c12 	lsl	r2, r2, ip
87803c5c:	e1570003 	cmp	r7, r3
87803c60:	01560002 	cmpeq	r6, r2
87803c64:	3a000031 	bcc	87803d30 <__udivmoddi4+0x12c>
87803c68:	e3a05000 	mov	r5, #0, 0
87803c6c:	e3a04001 	mov	r4, #1, 0
87803c70:	e1a05c15 	lsl	r5, r5, ip
87803c74:	e24c1020 	sub	r1, ip, #32, 0
87803c78:	e26c0020 	rsb	r0, ip, #32, 0
87803c7c:	e1855114 	orr	r5, r5, r4, lsl r1
87803c80:	e0566002 	subs	r6, r6, r2
87803c84:	e0c77003 	sbc	r7, r7, r3
87803c88:	e1855034 	orr	r5, r5, r4, lsr r0
87803c8c:	e1a04c14 	lsl	r4, r4, ip
87803c90:	ec454b30 	vmov	d16, r4, r5
87803c94:	e35c0000 	cmp	ip, #0, 0
87803c98:	0a000020 	beq	87803d20 <__udivmoddi4+0x11c>
87803c9c:	e1a020a2 	lsr	r2, r2, #1
87803ca0:	e1a0400c 	mov	r4, ip
87803ca4:	e1822f83 	orr	r2, r2, r3, lsl #31
87803ca8:	e1a030a3 	lsr	r3, r3, #1
87803cac:	e1570003 	cmp	r7, r3
87803cb0:	01560002 	cmpeq	r6, r2
87803cb4:	3a00001f 	bcc	87803d38 <__udivmoddi4+0x134>
87803cb8:	e0566002 	subs	r6, r6, r2
87803cbc:	e0c77003 	sbc	r7, r7, r3
87803cc0:	e0960006 	adds	r0, r6, r6
87803cc4:	e1a08006 	mov	r8, r6
87803cc8:	e0a71007 	adc	r1, r7, r7
87803ccc:	e2906001 	adds	r6, r0, #1, 0
87803cd0:	e1a09007 	mov	r9, r7
87803cd4:	e2a17000 	adc	r7, r1, #0, 0
87803cd8:	e2544001 	subs	r4, r4, #1, 0
87803cdc:	1afffff2 	bne	87803cac <__udivmoddi4+0xa8>
87803ce0:	ec476b31 	vmov	d17, r6, r7
87803ce4:	e1a06c36 	lsr	r6, r6, ip
87803ce8:	e26c3020 	rsb	r3, ip, #32, 0
87803cec:	e1866317 	orr	r6, r6, r7, lsl r3
87803cf0:	e24c2020 	sub	r2, ip, #32, 0
87803cf4:	e24c1020 	sub	r1, ip, #32, 0
87803cf8:	f27008a1 	vadd.i64	d16, d16, d17
87803cfc:	e1866237 	orr	r6, r6, r7, lsr r2
87803d00:	e1a07c37 	lsr	r7, r7, ip
87803d04:	e1a03c17 	lsl	r3, r7, ip
87803d08:	e26c0020 	rsb	r0, ip, #32, 0
87803d0c:	e1a02c16 	lsl	r2, r6, ip
87803d10:	e1833116 	orr	r3, r3, r6, lsl r1
87803d14:	e1833036 	orr	r3, r3, r6, lsr r0
87803d18:	ec432b31 	vmov	d17, r2, r3
87803d1c:	f37008a1 	vsub.i64	d16, d16, d17
87803d20:	e35e0000 	cmp	lr, #0, 0
87803d24:	ec510b30 	vmov	r0, r1, d16
87803d28:	11ce60f0 	strdne	r6, [lr]
87803d2c:	e8bd83f0 	pop	{r4, r5, r6, r7, r8, r9, pc}
87803d30:	f2c00010 	vmov.i32	d16, #0	; 0x00000000
87803d34:	eaffffd6 	b	87803c94 <__udivmoddi4+0x90>
87803d38:	e0966006 	adds	r6, r6, r6
87803d3c:	e0a77007 	adc	r7, r7, r7
87803d40:	eaffffe4 	b	87803cd8 <__udivmoddi4+0xd4>
87803d44:	f2c00010 	vmov.i32	d16, #0	; 0x00000000
87803d48:	eafffff4 	b	87803d20 <__udivmoddi4+0x11c>

Disassembly of section .text.startup:

87803d4c <main>:
87803d4c:	e92d4010 	push	{r4, lr}
87803d50:	ebfff276 	bl	87800730 <Init_Interrupt>
87803d54:	ebfff113 	bl	878001a8 <Clk_Freq_Init>
87803d58:	ebfff107 	bl	8780017c <Clk_Init>
87803d5c:	ebfff4a0 	bl	87800fe4 <UART1_Init>
87803d60:	ebfff190 	bl	878003a8 <Led_Init>
87803d64:	ebfff238 	bl	8780064c <Beep_Init>
87803d68:	ebfff62b 	bl	8780161c <Delay_Init>
87803d6c:	ebfff5fc 	bl	87801564 <LCD_Init>
87803d70:	e3a00f7d 	mov	r0, #500	; 0x1f4
87803d74:	ebfff657 	bl	878016d8 <HightPrecisionDelayMS>
87803d78:	eafffffc 	b	87803d70 <main+0x24>

Disassembly of section .rodata:

87803d7c <.LANCHOR0>:
87803d7c:	00000001 	andeq	r0, r0, r1
87803d80:	00000001 	andeq	r0, r0, r1
87803d84:	00000000 	andeq	r0, r0, r0

87803d88 <.LANCHOR0>:
87803d88:	00000001 	andeq	r0, r0, r1
87803d8c:	00000001 	andeq	r0, r0, r1
87803d90:	00000000 	andeq	r0, r0, r0

87803d94 <CSWTCH.4>:
87803d94:	00000004 	andeq	r0, r0, r4
87803d98:	00000003 	andeq	r0, r0, r3
87803d9c:	00000002 	andeq	r0, r0, r2
87803da0:	00000001 	andeq	r0, r0, r1
87803da4:	00000000 	andeq	r0, r0, r0
87803da8:	00000006 	andeq	r0, r0, r6

87803dac <.LANCHOR0>:
87803dac:	00000001 	andeq	r0, r0, r1
87803db0:	00000001 	andeq	r0, r0, r1
87803db4:	00000000 	andeq	r0, r0, r0

87803db8 <digits.5236>:
87803db8:	33323130 	teqcc	r2, #12
87803dbc:	37363534 			; <UNDEFINED> instruction: 0x37363534
87803dc0:	42413938 	submi	r3, r1, #56, 18	; 0xe0000
87803dc4:	46454443 	strbmi	r4, [r5], -r3, asr #8

Disassembly of section .rodata.str1.4:

87803dc8 <.rodata.str1.4>:
87803dc8:	2044434c 	subcs	r4, r4, ip, asr #6
87803dcc:	203a4449 	eorscs	r4, sl, r9, asr #8
87803dd0:	20782325 	rsbscs	r2, r8, r5, lsr #6
87803dd4:	00000a0d 	andeq	r0, r0, sp, lsl #20
87803dd8:	6e65706f 	cdpvs	0, 6, cr7, cr5, cr15, {3}
87803ddc:	64636c20 	strbtvs	r6, [r3], #-3104	; 0xfffff3e0
87803de0:	63616220 	cmnvs	r1, #32, 4
87803de4:	6f72676b 	svcvs	0x0072676b
87803de8:	20646e75 	rsbcs	r6, r4, r5, ror lr
87803dec:	6867696c 	stmdavs	r7!, {r2, r3, r5, r6, r8, fp, sp, lr}^
87803df0:	0a0d2074 	beq	87b4bfc8 <__bss_end+0x347390>
87803df4:	00000000 	andeq	r0, r0, r0
87803df8:	4c554e3c 	mrrcmi	14, 3, r4, r5, cr12
87803dfc:	00003e4c 	andeq	r3, r0, ip, asr #28

Disassembly of section .ARM.exidx:

87803e00 <.ARM.exidx>:
87803e00:	7ffffe04 	svcvc	0x00fffe04
87803e04:	00000001 	andeq	r0, r0, r1

Disassembly of section .data:

87803e08 <state.8902>:
87803e08:	00000001 	andeq	r0, r0, r1

87803e0c <state.8835>:
87803e0c:	00000001 	andeq	r0, r0, r1

87803e10 <_ctype>:
87803e10:	08080808 	stmdaeq	r8, {r3, fp}
87803e14:	08080808 	stmdaeq	r8, {r3, fp}
87803e18:	28282808 	stmdacs	r8!, {r3, fp, sp}
87803e1c:	08082828 	stmdaeq	r8, {r3, r5, fp, sp}
87803e20:	08080808 	stmdaeq	r8, {r3, fp}
87803e24:	08080808 	stmdaeq	r8, {r3, fp}
87803e28:	08080808 	stmdaeq	r8, {r3, fp}
87803e2c:	08080808 	stmdaeq	r8, {r3, fp}
87803e30:	101010a0 	andsne	r1, r0, r0, lsr #1
87803e34:	10101010 	andsne	r1, r0, r0, lsl r0
87803e38:	10101010 	andsne	r1, r0, r0, lsl r0
87803e3c:	10101010 	andsne	r1, r0, r0, lsl r0
87803e40:	04040404 	streq	r0, [r4], #-1028	; 0xfffffbfc
87803e44:	04040404 	streq	r0, [r4], #-1028	; 0xfffffbfc
87803e48:	10100404 	andsne	r0, r0, r4, lsl #8
87803e4c:	10101010 	andsne	r1, r0, r0, lsl r0
87803e50:	41414110 	cmpmi	r1, r0, lsl r1
87803e54:	01414141 	cmpeq	r1, r1, asr #2
87803e58:	01010101 	tsteq	r1, r1, lsl #2
87803e5c:	01010101 	tsteq	r1, r1, lsl #2
87803e60:	01010101 	tsteq	r1, r1, lsl #2
87803e64:	01010101 	tsteq	r1, r1, lsl #2
87803e68:	10010101 	andne	r0, r1, r1, lsl #2
87803e6c:	10101010 	andsne	r1, r0, r0, lsl r0
87803e70:	42424210 	submi	r4, r2, #16, 4
87803e74:	02424242 	subeq	r4, r2, #536870916	; 0x20000004
87803e78:	02020202 	andeq	r0, r2, #536870912	; 0x20000000
87803e7c:	02020202 	andeq	r0, r2, #536870912	; 0x20000000
87803e80:	02020202 	andeq	r0, r2, #536870912	; 0x20000000
87803e84:	02020202 	andeq	r0, r2, #536870912	; 0x20000000
87803e88:	10020202 	andne	r0, r2, r2, lsl #4
87803e8c:	08101010 	ldmdaeq	r0, {r4, ip}
	...
87803eb0:	101010a0 	andsne	r1, r0, r0, lsr #1
87803eb4:	10101010 	andsne	r1, r0, r0, lsl r0
87803eb8:	10101010 	andsne	r1, r0, r0, lsl r0
87803ebc:	10101010 	andsne	r1, r0, r0, lsl r0
87803ec0:	10101010 	andsne	r1, r0, r0, lsl r0
87803ec4:	10101010 	andsne	r1, r0, r0, lsl r0
87803ec8:	10101010 	andsne	r1, r0, r0, lsl r0
87803ecc:	10101010 	andsne	r1, r0, r0, lsl r0
87803ed0:	01010101 	tsteq	r1, r1, lsl #2
87803ed4:	01010101 	tsteq	r1, r1, lsl #2
87803ed8:	01010101 	tsteq	r1, r1, lsl #2
87803edc:	01010101 	tsteq	r1, r1, lsl #2
87803ee0:	01010101 	tsteq	r1, r1, lsl #2
87803ee4:	10010101 	andne	r0, r1, r1, lsl #2
87803ee8:	01010101 	tsteq	r1, r1, lsl #2
87803eec:	02010101 	andeq	r0, r1, #1073741824	; 0x40000000
87803ef0:	02020202 	andeq	r0, r2, #536870912	; 0x20000000
87803ef4:	02020202 	andeq	r0, r2, #536870912	; 0x20000000
87803ef8:	02020202 	andeq	r0, r2, #536870912	; 0x20000000
87803efc:	02020202 	andeq	r0, r2, #536870912	; 0x20000000
87803f00:	02020202 	andeq	r0, r2, #536870912	; 0x20000000
87803f04:	10020202 	andne	r0, r2, r2, lsl #4
87803f08:	02020202 	andeq	r0, r2, #536870912	; 0x20000000
87803f0c:	02020202 	andeq	r0, r2, #536870912	; 0x20000000

Disassembly of section .bss:

87803f10 <__bss_start>:
87803f10:	00000000 	andeq	r0, r0, r0

87803f14 <_irqInterruptTables>:
	...

87804414 <g_pcOutBuf>:
	...

87804814 <g_pcInBuf>:
	...

87804c14 <lcd_device_info>:
	...

87804c34 <___strtok>:
87804c34:	00000000 	andeq	r0, r0, r0

Disassembly of section .comment:

00000000 <.comment>:
   0:	3a434347 	bcc	10d0d24 <_start-0x8672f2dc>
   4:	72632820 	rsbvc	r2, r3, #32, 16	; 0x200000
   8:	7473736f 	ldrbtvc	r7, [r3], #-879	; 0xfffffc91
   c:	2d6c6f6f 	stclcs	15, cr6, [ip, #-444]!	; 0xfffffe44
  10:	3120474e 			; <UNDEFINED> instruction: 0x3120474e
  14:	2e34322e 	cdpcs	2, 3, cr3, cr4, cr14, {1}
  18:	38202930 	stmdacc	r0!, {r4, r5, r8, fp, sp}
  1c:	302e332e 	eorcc	r3, lr, lr, lsr #6
	...

Disassembly of section .ARM.attributes:

00000000 <.ARM.attributes>:
   0:	00003441 	andeq	r3, r0, r1, asr #8
   4:	61656100 	cmnvs	r5, r0, lsl #2
   8:	01006962 	tsteq	r0, r2, ror #18
   c:	0000002a 	andeq	r0, r0, sl, lsr #32
  10:	412d3705 			; <UNDEFINED> instruction: 0x412d3705
  14:	070a0600 	streq	r0, [sl, -r0, lsl #12]
  18:	09010841 	stmdbeq	r1, {r0, r6, fp}
  1c:	0c050a02 			; <UNDEFINED> instruction: 0x0c050a02
  20:	14041202 	strne	r1, [r4], #-514	; 0xfffffdfe
  24:	17011501 	strne	r1, [r1, -r1, lsl #10]
  28:	1a011803 	bne	4603c <_start-0x877b9fc4>
  2c:	22011c02 	andcs	r1, r1, #512	; 0x200
  30:	44012a01 	strmi	r2, [r1], #-2561	; 0xfffff5ff
  34:	Address 0x0000000000000034 is out of bounds.


Disassembly of section .debug_frame:

00000000 <.debug_frame>:
   0:	0000000c 	andeq	r0, r0, ip
   4:	ffffffff 			; <UNDEFINED> instruction: 0xffffffff
   8:	7c010001 	stcvc	0, cr0, [r1], {1}
   c:	000d0c0e 	andeq	r0, sp, lr, lsl #24
  10:	0000000c 	andeq	r0, r0, ip
  14:	00000000 	andeq	r0, r0, r0
  18:	87803a1c 	usada8hi	r0, ip, sl, r3
  1c:	000000a8 	andeq	r0, r0, r8, lsr #1
  20:	0000000c 	andeq	r0, r0, ip
  24:	ffffffff 			; <UNDEFINED> instruction: 0xffffffff
  28:	7c020001 	stcvc	0, cr0, [r2], {1}
  2c:	000d0c0e 	andeq	r0, sp, lr, lsl #24
  30:	00000030 	andeq	r0, r0, r0, lsr r0
  34:	00000020 	andeq	r0, r0, r0, lsr #32
  38:	87803ae4 	strhi	r3, [r0, r4, ror #21]
  3c:	000000d4 	ldrdeq	r0, [r0], -r4
  40:	8e100e5a 	mrchi	14, 0, r0, cr0, cr10, {2}
  44:	460a4a03 	strmi	r4, [sl], -r3, lsl #20
  48:	42100ece 	andsmi	r0, r0, #3296	; 0xce0
  4c:	460a4a0b 	strmi	r4, [sl], -fp, lsl #20
  50:	4a100ece 	bmi	403b90 <_start-0x873fc470>
  54:	460a460b 	strmi	r4, [sl], -fp, lsl #12
  58:	46100ece 	ldrmi	r0, [r0], -lr, asr #29
  5c:	0ece4c0b 	cdpeq	12, 12, cr4, cr14, cr11, {0}
  60:	00000010 	andeq	r0, r0, r0, lsl r0
  64:	0000000c 	andeq	r0, r0, ip
  68:	ffffffff 			; <UNDEFINED> instruction: 0xffffffff
  6c:	7c020001 	stcvc	0, cr0, [r2], {1}
  70:	000d0c0e 	andeq	r0, sp, lr, lsl #24
  74:	00000018 	andeq	r0, r0, r8, lsl r0
  78:	00000064 	andeq	r0, r0, r4, rrx
  7c:	87803bb8 			; <UNDEFINED> instruction: 0x87803bb8
  80:	0000003c 	andeq	r0, r0, ip, lsr r0
  84:	8e100e54 	mrchi	14, 0, r0, cr0, cr4, {2}
  88:	0ece4803 	cdpeq	8, 12, cr4, cr14, cr3, {0}
  8c:	00000010 	andeq	r0, r0, r0, lsl r0
  90:	0000000c 	andeq	r0, r0, ip
  94:	ffffffff 			; <UNDEFINED> instruction: 0xffffffff
  98:	7c010001 	stcvc	0, cr0, [r1], {1}
  9c:	000d0c0e 	andeq	r0, sp, lr, lsl #24
  a0:	00000014 	andeq	r0, r0, r4, lsl r0
  a4:	00000090 	muleq	r0, r0, r0
  a8:	87803bf4 			; <UNDEFINED> instruction: 0x87803bf4
  ac:	00000010 	andeq	r0, r0, r0, lsl r0
  b0:	0e018e44 	cdpeq	14, 0, cr8, cr1, cr4, {2}
  b4:	00000008 	andeq	r0, r0, r8
  b8:	0000000c 	andeq	r0, r0, ip
  bc:	ffffffff 			; <UNDEFINED> instruction: 0xffffffff
  c0:	7c020001 	stcvc	0, cr0, [r2], {1}
  c4:	000d0c0e 	andeq	r0, sp, lr, lsl #24
  c8:	00000020 	andeq	r0, r0, r0, lsr #32
  cc:	000000b8 	strheq	r0, [r0], -r8
  d0:	87803c04 	strhi	r3, [r0, r4, lsl #24]
  d4:	00000148 	andeq	r0, r0, r8, asr #2
  d8:	841c0e44 	ldrhi	r0, [ip], #-3652	; 0xfffff1bc
  dc:	86068507 	strhi	r8, [r6], -r7, lsl #10
  e0:	88048705 	stmdahi	r4, {r0, r2, r8, r9, sl, pc}
  e4:	8e028903 	vmlahi.f16	s16, s4, s6	; <UNPREDICTABLE>
  e8:	00000001 	andeq	r0, r0, r1

Disassembly of section .debug_line:

00000000 <.debug_line>:
   0:	000000aa 	andeq	r0, r0, sl, lsr #1
   4:	00780003 	rsbseq	r0, r8, r3
   8:	01020000 	mrseq	r0, (UNDEF: 2)
   c:	000d0efb 	strdeq	r0, [sp], -fp
  10:	01010101 	tsteq	r1, r1, lsl #2
  14:	01000000 	mrseq	r0, (UNDEF: 0)
  18:	2f010000 	svccs	0x00010000
  1c:	756c6f56 	strbvc	r6, [ip, #-3926]!	; 0xfffff0aa
  20:	2f73656d 	svccs	0x0073656d
  24:	6f6f7478 	svcvs	0x006f7478
  28:	75622d6c 	strbvc	r2, [r2, #-3436]!	; 0xfffff294
  2c:	2d646c69 	stclcs	12, cr6, [r4, #-420]!	; 0xfffffe5c
  30:	2f766e65 	svccs	0x00766e65
  34:	6975622e 	ldmdbvs	r5!, {r1, r2, r3, r5, r9, sp, lr}^
  38:	612f646c 			; <UNDEFINED> instruction: 0x612f646c
  3c:	752d6d72 	strvc	r6, [sp, #-3442]!	; 0xfffff28e
  40:	6f6e6b6e 	svcvs	0x006e6b6e
  44:	6c2d6e77 	stcvs	14, cr6, [sp], #-476	; 0xfffffe24
  48:	78756e69 	ldmdavc	r5!, {r0, r3, r5, r6, r9, sl, fp, sp, lr}^
  4c:	756e672d 	strbvc	r6, [lr, #-1837]!	; 0xfffff8d3
  50:	69626165 	stmdbvs	r2!, {r0, r2, r5, r6, r8, sp, lr}^
  54:	732f6668 			; <UNDEFINED> instruction: 0x732f6668
  58:	672f6372 			; <UNDEFINED> instruction: 0x672f6372
  5c:	6c2f6363 	stcvs	3, cr6, [pc], #-396	; fffffed8 <__bss_end+0x787fb2a0>
  60:	63676269 	cmnvs	r7, #-1879048186	; 0x90000006
  64:	6f632f63 	svcvs	0x00632f63
  68:	6769666e 	strbvs	r6, [r9, -lr, ror #12]!
  6c:	6d72612f 	ldfvse	f6, [r2, #-188]!	; 0xffffff44
  70:	696c0000 	stmdbvs	ip!, {}^	; <UNPREDICTABLE>
  74:	75663162 	strbvc	r3, [r6, #-354]!	; 0xfffffe9e
  78:	2e73636e 	cdpcs	3, 7, cr6, cr3, cr14, {3}
  7c:	00010053 	andeq	r0, r1, r3, asr r0
  80:	05000000 	streq	r0, [r0, #-0]
  84:	803a1c02 	eorshi	r1, sl, r2, lsl #24
  88:	08fd0387 	ldmeq	sp!, {r0, r1, r2, r7, r8, r9}^
  8c:	2f2f3001 	svccs	0x002f3001
  90:	302f2f2f 	eorcc	r2, pc, pc, lsr #30
  94:	2f142e02 	svccs	0x00142e02
  98:	302f2f31 	eorcc	r2, pc, r1, lsr pc	; <UNPREDICTABLE>
  9c:	03322f4c 	teqeq	r2, #76, 30	; 0x130
  a0:	2f2f661f 	svccs	0x002f661f
  a4:	2f2f2f2f 	svccs	0x002f2f2f
  a8:	0002022f 	andeq	r0, r2, pc, lsr #4
  ac:	00ac0101 	adceq	r0, ip, r1, lsl #2
  b0:	00030000 	andeq	r0, r3, r0
  b4:	00000074 	andeq	r0, r0, r4, ror r0
  b8:	0efb0102 	cdpeq	1, 15, cr0, cr11, cr2, {0}
  bc:	0101000d 	tsteq	r1, sp
  c0:	00000101 	andeq	r0, r0, r1, lsl #2
  c4:	00000100 	andeq	r0, r0, r0, lsl #2
  c8:	6f562f01 	svcvs	0x00562f01
  cc:	656d756c 	strbvs	r7, [sp, #-1388]!	; 0xfffffa94
  d0:	74782f73 	ldrbtvc	r2, [r8], #-3955	; 0xfffff08d
  d4:	2d6c6f6f 	stclcs	15, cr6, [ip, #-444]!	; 0xfffffe44
  d8:	6c697562 	cfstr64vs	mvdx7, [r9], #-392	; 0xfffffe78
  dc:	6e652d64 	cdpvs	13, 6, cr2, cr5, cr4, {3}
  e0:	622e2f76 	eorvs	r2, lr, #472	; 0x1d8
  e4:	646c6975 	strbtvs	r6, [ip], #-2421	; 0xfffff68b
  e8:	6d72612f 	ldfvse	f6, [r2, #-188]!	; 0xffffff44
  ec:	6b6e752d 	blvs	1b9d5a8 <_start-0x85c62a58>
  f0:	6e776f6e 	cdpvs	15, 7, cr6, cr7, cr14, {3}
  f4:	6e696c2d 	cdpvs	12, 6, cr6, cr9, cr13, {1}
  f8:	672d7875 			; <UNDEFINED> instruction: 0x672d7875
  fc:	6165756e 	cmnvs	r5, lr, ror #10
 100:	66686962 	strbtvs	r6, [r8], -r2, ror #18
 104:	6372732f 	cmnvs	r2, #-1140850688	; 0xbc000000
 108:	6363672f 	cmnvs	r3, #12320768	; 0xbc0000
 10c:	62696c2f 	rsbvs	r6, r9, #12032	; 0x2f00
 110:	2f636367 	svccs	0x00636367
 114:	666e6f63 	strbtvs	r6, [lr], -r3, ror #30
 118:	612f6769 			; <UNDEFINED> instruction: 0x612f6769
 11c:	00006d72 	andeq	r6, r0, r2, ror sp
 120:	62617062 	rsbvs	r7, r1, #98, 0	; 0x62
 124:	00532e69 	subseq	r2, r3, r9, ror #28
 128:	00000001 	andeq	r0, r0, r1
 12c:	e4020500 	str	r0, [r2], #-1280	; 0xfffffb00
 130:	0387803a 	orreq	r8, r7, #58, 0	; 0x3a
 134:	080101b9 	stmdaeq	r1, {r0, r3, r4, r5, r7, r8}
 138:	2f2f4b5a 	svccs	0x002f4b5a
 13c:	6730302f 	ldrvs	r3, [r0, -pc, lsr #32]!
 140:	2f2f2f32 	svccs	0x002f2f32
 144:	2f673030 	svccs	0x00673030
 148:	322f2f2f 	eorcc	r2, pc, #188	; 0xbc
 14c:	6730302f 	ldrvs	r3, [r0, -pc, lsr #32]!
 150:	2f322f2f 	svccs	0x00322f2f
 154:	2f672f30 	svccs	0x00672f30
 158:	0002022f 	andeq	r0, r2, pc, lsr #4
 15c:	008e0101 	addeq	r0, lr, r1, lsl #2
 160:	00030000 	andeq	r0, r3, r0
 164:	00000074 	andeq	r0, r0, r4, ror r0
 168:	0efb0102 	cdpeq	1, 15, cr0, cr11, cr2, {0}
 16c:	0101000d 	tsteq	r1, sp
 170:	00000101 	andeq	r0, r0, r1, lsl #2
 174:	00000100 	andeq	r0, r0, r0, lsl #2
 178:	6f562f01 	svcvs	0x00562f01
 17c:	656d756c 	strbvs	r7, [sp, #-1388]!	; 0xfffffa94
 180:	74782f73 	ldrbtvc	r2, [r8], #-3955	; 0xfffff08d
 184:	2d6c6f6f 	stclcs	15, cr6, [ip, #-444]!	; 0xfffffe44
 188:	6c697562 	cfstr64vs	mvdx7, [r9], #-392	; 0xfffffe78
 18c:	6e652d64 	cdpvs	13, 6, cr2, cr5, cr4, {3}
 190:	622e2f76 	eorvs	r2, lr, #472	; 0x1d8
 194:	646c6975 	strbtvs	r6, [ip], #-2421	; 0xfffff68b
 198:	6d72612f 	ldfvse	f6, [r2, #-188]!	; 0xffffff44
 19c:	6b6e752d 	blvs	1b9d658 <_start-0x85c629a8>
 1a0:	6e776f6e 	cdpvs	15, 7, cr6, cr7, cr14, {3}
 1a4:	6e696c2d 	cdpvs	12, 6, cr6, cr9, cr13, {1}
 1a8:	672d7875 			; <UNDEFINED> instruction: 0x672d7875
 1ac:	6165756e 	cmnvs	r5, lr, ror #10
 1b0:	66686962 	strbtvs	r6, [r8], -r2, ror #18
 1b4:	6372732f 	cmnvs	r2, #-1140850688	; 0xbc000000
 1b8:	6363672f 	cmnvs	r3, #12320768	; 0xbc0000
 1bc:	62696c2f 	rsbvs	r6, r9, #12032	; 0x2f00
 1c0:	2f636367 	svccs	0x00636367
 1c4:	666e6f63 	strbtvs	r6, [lr], -r3, ror #30
 1c8:	612f6769 			; <UNDEFINED> instruction: 0x612f6769
 1cc:	00006d72 	andeq	r6, r0, r2, ror sp
 1d0:	62617062 	rsbvs	r7, r1, #98, 0	; 0x62
 1d4:	00532e69 	subseq	r2, r3, r9, ror #28
 1d8:	00000001 	andeq	r0, r0, r1
 1dc:	b8020500 	stmdalt	r2, {r8, sl}
 1e0:	0387803b 	orreq	r8, r7, #59, 0	; 0x3b
 1e4:	f40101fd 	vst4.<illegal width 64>	{d0,d2,d4,d6}, [r1 :256]!
 1e8:	02672f4c 	rsbeq	r2, r7, #76, 30	; 0x130
 1ec:	01010002 	tsteq	r1, r2
 1f0:	00000093 	muleq	r0, r3, r0
 1f4:	00780003 	rsbseq	r0, r8, r3
 1f8:	01020000 	mrseq	r0, (UNDEF: 2)
 1fc:	000d0efb 	strdeq	r0, [sp], -fp
 200:	01010101 	tsteq	r1, r1, lsl #2
 204:	01000000 	mrseq	r0, (UNDEF: 0)
 208:	2f010000 	svccs	0x00010000
 20c:	756c6f56 	strbvc	r6, [ip, #-3926]!	; 0xfffff0aa
 210:	2f73656d 	svccs	0x0073656d
 214:	6f6f7478 	svcvs	0x006f7478
 218:	75622d6c 	strbvc	r2, [r2, #-3436]!	; 0xfffff294
 21c:	2d646c69 	stclcs	12, cr6, [r4, #-420]!	; 0xfffffe5c
 220:	2f766e65 	svccs	0x00766e65
 224:	6975622e 	ldmdbvs	r5!, {r1, r2, r3, r5, r9, sp, lr}^
 228:	612f646c 			; <UNDEFINED> instruction: 0x612f646c
 22c:	752d6d72 	strvc	r6, [sp, #-3442]!	; 0xfffff28e
 230:	6f6e6b6e 	svcvs	0x006e6b6e
 234:	6c2d6e77 	stcvs	14, cr6, [sp], #-476	; 0xfffffe24
 238:	78756e69 	ldmdavc	r5!, {r0, r3, r5, r6, r9, sl, fp, sp, lr}^
 23c:	756e672d 	strbvc	r6, [lr, #-1837]!	; 0xfffff8d3
 240:	69626165 	stmdbvs	r2!, {r0, r2, r5, r6, r8, sp, lr}^
 244:	732f6668 			; <UNDEFINED> instruction: 0x732f6668
 248:	672f6372 			; <UNDEFINED> instruction: 0x672f6372
 24c:	6c2f6363 	stcvs	3, cr6, [pc], #-396	; c8 <_start-0x877fff38>
 250:	63676269 	cmnvs	r7, #-1879048186	; 0x90000006
 254:	6f632f63 	svcvs	0x00632f63
 258:	6769666e 	strbvs	r6, [r9, -lr, ror #12]!
 25c:	6d72612f 	ldfvse	f6, [r2, #-188]!	; 0xffffff44
 260:	696c0000 	stmdbvs	ip!, {}^	; <UNPREDICTABLE>
 264:	75663162 	strbvc	r3, [r6, #-354]!	; 0xfffffe9e
 268:	2e73636e 	cdpcs	3, 7, cr6, cr3, cr14, {3}
 26c:	00010053 	andeq	r0, r1, r3, asr r0
 270:	05000000 	streq	r0, [r0, #-0]
 274:	803bf402 	eorshi	pc, fp, r2, lsl #8
 278:	0bfe0387 	bleq	fff8109c <__bss_end+0x7877c464>
 27c:	2e090301 	cdpcs	3, 0, cr0, cr9, cr1, {0}
 280:	02022f2f 	andeq	r2, r2, #188	; 0xbc
 284:	af010100 	svcge	0x00010100
 288:	03000004 	movweq	r0, #4
 28c:	00039b00 	andeq	r9, r3, r0, lsl #22
 290:	fb010200 	blx	40a9a <_start-0x877bf566>
 294:	01000d0e 	tsteq	r0, lr, lsl #26
 298:	00010101 	andeq	r0, r1, r1, lsl #2
 29c:	00010000 	andeq	r0, r1, r0
 2a0:	562f0100 	strtpl	r0, [pc], -r0, lsl #2
 2a4:	6d756c6f 	ldclvs	12, cr6, [r5, #-444]!	; 0xfffffe44
 2a8:	782f7365 	stmdavc	pc!, {r0, r2, r5, r6, r8, r9, ip, sp, lr}	; <UNPREDICTABLE>
 2ac:	6c6f6f74 	stclvs	15, cr6, [pc], #-464	; e4 <_start-0x877fff1c>
 2b0:	6975622d 	ldmdbvs	r5!, {r0, r2, r3, r5, r9, sp, lr}^
 2b4:	652d646c 	strvs	r6, [sp, #-1132]!	; 0xfffffb94
 2b8:	2e2f766e 	cfmadda32cs	mvax3, mvax7, mvfx15, mvfx14
 2bc:	6c697562 	cfstr64vs	mvdx7, [r9], #-392	; 0xfffffe78
 2c0:	72612f64 	rsbvc	r2, r1, #100, 30	; 0x190
 2c4:	6e752d6d 	cdpvs	13, 7, cr2, cr5, cr13, {3}
 2c8:	776f6e6b 	strbvc	r6, [pc, -fp, ror #28]!
 2cc:	696c2d6e 	stmdbvs	ip!, {r1, r2, r3, r5, r6, r8, sl, fp, sp}^
 2d0:	2d78756e 	cfldr64cs	mvdx7, [r8, #-440]!	; 0xfffffe48
 2d4:	65756e67 	ldrbvs	r6, [r5, #-3687]!	; 0xfffff199
 2d8:	68696261 	stmdavs	r9!, {r0, r5, r6, r9, sp, lr}^
 2dc:	72732f66 	rsbsvc	r2, r3, #408	; 0x198
 2e0:	63672f63 	cmnvs	r7, #396	; 0x18c
 2e4:	696c2f63 	stmdbvs	ip!, {r0, r1, r5, r6, r8, r9, sl, fp, sp}^
 2e8:	63636762 	cmnvs	r3, #25690112	; 0x1880000
 2ec:	6f562f00 	svcvs	0x00562f00
 2f0:	656d756c 	strbvs	r7, [sp, #-1388]!	; 0xfffffa94
 2f4:	74782f73 	ldrbtvc	r2, [r8], #-3955	; 0xfffff08d
 2f8:	2d6c6f6f 	stclcs	15, cr6, [ip, #-444]!	; 0xfffffe44
 2fc:	6c697562 	cfstr64vs	mvdx7, [r9], #-392	; 0xfffffe78
 300:	6e652d64 	cdpvs	13, 6, cr2, cr5, cr4, {3}
 304:	622e2f76 	eorvs	r2, lr, #472	; 0x1d8
 308:	646c6975 	strbtvs	r6, [ip], #-2421	; 0xfffff68b
 30c:	6d72612f 	ldfvse	f6, [r2, #-188]!	; 0xffffff44
 310:	6b6e752d 	blvs	1b9d7cc <_start-0x85c62834>
 314:	6e776f6e 	cdpvs	15, 7, cr6, cr7, cr14, {3}
 318:	6e696c2d 	cdpvs	12, 6, cr6, cr9, cr13, {1}
 31c:	672d7875 			; <UNDEFINED> instruction: 0x672d7875
 320:	6165756e 	cmnvs	r5, lr, ror #10
 324:	66686962 	strbtvs	r6, [r8], -r2, ror #18
 328:	6975622f 	ldmdbvs	r5!, {r0, r1, r2, r3, r5, r9, sp, lr}^
 32c:	622f646c 	eorvs	r6, pc, #108, 8	; 0x6c000000
 330:	646c6975 	strbtvs	r6, [ip], #-2421	; 0xfffff68b
 334:	2d63632d 	stclcs	3, cr6, [r3, #-180]!	; 0xffffff4c
 338:	2d636367 	stclcs	3, cr6, [r3, #-412]!	; 0xfffffe64
 33c:	616e6966 	cmnvs	lr, r6, ror #18
 340:	63672f6c 	cmnvs	r7, #108, 30	; 0x1b0
 344:	6e692f63 	cdpvs	15, 6, cr2, cr9, cr3, {3}
 348:	64756c63 	ldrbtvs	r6, [r5], #-3171	; 0xfffff39d
 34c:	562f0065 	strtpl	r0, [pc], -r5, rrx
 350:	6d756c6f 	ldclvs	12, cr6, [r5, #-444]!	; 0xfffffe44
 354:	782f7365 	stmdavc	pc!, {r0, r2, r5, r6, r8, r9, ip, sp, lr}	; <UNPREDICTABLE>
 358:	6c6f6f74 	stclvs	15, cr6, [pc], #-464	; 190 <_start-0x877ffe70>
 35c:	6975622d 	ldmdbvs	r5!, {r0, r2, r3, r5, r9, sp, lr}^
 360:	652d646c 	strvs	r6, [sp, #-1132]!	; 0xfffffb94
 364:	612f766e 			; <UNDEFINED> instruction: 0x612f766e
 368:	752d6d72 	strvc	r6, [sp, #-3442]!	; 0xfffff28e
 36c:	6f6e6b6e 	svcvs	0x006e6b6e
 370:	6c2d6e77 	stcvs	14, cr6, [sp], #-476	; 0xfffffe24
 374:	78756e69 	ldmdavc	r5!, {r0, r3, r5, r6, r9, sl, fp, sp, lr}^
 378:	756e672d 	strbvc	r6, [lr, #-1837]!	; 0xfffff8d3
 37c:	69626165 	stmdbvs	r2!, {r0, r2, r5, r6, r8, sp, lr}^
 380:	612f6668 			; <UNDEFINED> instruction: 0x612f6668
 384:	752d6d72 	strvc	r6, [sp, #-3442]!	; 0xfffff28e
 388:	6f6e6b6e 	svcvs	0x006e6b6e
 38c:	6c2d6e77 	stcvs	14, cr6, [sp], #-476	; 0xfffffe24
 390:	78756e69 	ldmdavc	r5!, {r0, r3, r5, r6, r9, sl, fp, sp, lr}^
 394:	756e672d 	strbvc	r6, [lr, #-1837]!	; 0xfffff8d3
 398:	69626165 	stmdbvs	r2!, {r0, r2, r5, r6, r8, sp, lr}^
 39c:	732f6668 			; <UNDEFINED> instruction: 0x732f6668
 3a0:	6f727379 	svcvs	0x00727379
 3a4:	752f746f 	strvc	r7, [pc, #-1135]!	; ffffff3d <__bss_end+0x787fb305>
 3a8:	692f7273 	stmdbvs	pc!, {r0, r1, r4, r5, r6, r9, ip, sp, lr}	; <UNPREDICTABLE>
 3ac:	756c636e 	strbvc	r6, [ip, #-878]!	; 0xfffffc92
 3b0:	622f6564 	eorvs	r6, pc, #100, 10	; 0x19000000
 3b4:	00737469 	rsbseq	r7, r3, r9, ror #8
 3b8:	6c6f562f 	stclvs	6, cr5, [pc], #-188	; 304 <_start-0x877ffcfc>
 3bc:	73656d75 	cmnvc	r5, #7488	; 0x1d40
 3c0:	6f74782f 	svcvs	0x0074782f
 3c4:	622d6c6f 	eorvs	r6, sp, #28416	; 0x6f00
 3c8:	646c6975 	strbtvs	r6, [ip], #-2421	; 0xfffff68b
 3cc:	766e652d 	strbtvc	r6, [lr], -sp, lsr #10
 3d0:	6d72612f 	ldfvse	f6, [r2, #-188]!	; 0xffffff44
 3d4:	6b6e752d 	blvs	1b9d890 <_start-0x85c62770>
 3d8:	6e776f6e 	cdpvs	15, 7, cr6, cr7, cr14, {3}
 3dc:	6e696c2d 	cdpvs	12, 6, cr6, cr9, cr13, {1}
 3e0:	672d7875 			; <UNDEFINED> instruction: 0x672d7875
 3e4:	6165756e 	cmnvs	r5, lr, ror #10
 3e8:	66686962 	strbtvs	r6, [r8], -r2, ror #18
 3ec:	6d72612f 	ldfvse	f6, [r2, #-188]!	; 0xffffff44
 3f0:	6b6e752d 	blvs	1b9d8ac <_start-0x85c62754>
 3f4:	6e776f6e 	cdpvs	15, 7, cr6, cr7, cr14, {3}
 3f8:	6e696c2d 	cdpvs	12, 6, cr6, cr9, cr13, {1}
 3fc:	672d7875 			; <UNDEFINED> instruction: 0x672d7875
 400:	6165756e 	cmnvs	r5, lr, ror #10
 404:	66686962 	strbtvs	r6, [r8], -r2, ror #18
 408:	7379732f 	cmnvc	r9, #-1140850688	; 0xbc000000
 40c:	746f6f72 	strbtvc	r6, [pc], #-3954	; 414 <_start-0x877ffbec>
 410:	7273752f 	rsbsvc	r7, r3, #197132288	; 0xbc00000
 414:	636e692f 	cmnvs	lr, #770048	; 0xbc000
 418:	6564756c 	strbvs	r7, [r4, #-1388]!	; 0xfffffa94
 41c:	7469622f 	strbtvc	r6, [r9], #-559	; 0xfffffdd1
 420:	79742f73 	ldmdbvc	r4!, {r0, r1, r4, r5, r6, r8, r9, sl, fp, sp}^
 424:	00736570 	rsbseq	r6, r3, r0, ror r5
 428:	6c6f562f 	stclvs	6, cr5, [pc], #-188	; 374 <_start-0x877ffc8c>
 42c:	73656d75 	cmnvc	r5, #7488	; 0x1d40
 430:	6f74782f 	svcvs	0x0074782f
 434:	622d6c6f 	eorvs	r6, sp, #28416	; 0x6f00
 438:	646c6975 	strbtvs	r6, [ip], #-2421	; 0xfffff68b
 43c:	766e652d 	strbtvc	r6, [lr], -sp, lsr #10
 440:	6d72612f 	ldfvse	f6, [r2, #-188]!	; 0xffffff44
 444:	6b6e752d 	blvs	1b9d900 <_start-0x85c62700>
 448:	6e776f6e 	cdpvs	15, 7, cr6, cr7, cr14, {3}
 44c:	6e696c2d 	cdpvs	12, 6, cr6, cr9, cr13, {1}
 450:	672d7875 			; <UNDEFINED> instruction: 0x672d7875
 454:	6165756e 	cmnvs	r5, lr, ror #10
 458:	66686962 	strbtvs	r6, [r8], -r2, ror #18
 45c:	6d72612f 	ldfvse	f6, [r2, #-188]!	; 0xffffff44
 460:	6b6e752d 	blvs	1b9d91c <_start-0x85c626e4>
 464:	6e776f6e 	cdpvs	15, 7, cr6, cr7, cr14, {3}
 468:	6e696c2d 	cdpvs	12, 6, cr6, cr9, cr13, {1}
 46c:	672d7875 			; <UNDEFINED> instruction: 0x672d7875
 470:	6165756e 	cmnvs	r5, lr, ror #10
 474:	66686962 	strbtvs	r6, [r8], -r2, ror #18
 478:	7379732f 	cmnvc	r9, #-1140850688	; 0xbc000000
 47c:	746f6f72 	strbtvc	r6, [pc], #-3954	; 484 <_start-0x877ffb7c>
 480:	7273752f 	rsbsvc	r7, r3, #197132288	; 0xbc00000
 484:	636e692f 	cmnvs	lr, #770048	; 0xbc000
 488:	6564756c 	strbvs	r7, [r4, #-1388]!	; 0xfffffa94
 48c:	6f562f00 	svcvs	0x00562f00
 490:	656d756c 	strbvs	r7, [sp, #-1388]!	; 0xfffffa94
 494:	74782f73 	ldrbtvc	r2, [r8], #-3955	; 0xfffff08d
 498:	2d6c6f6f 	stclcs	15, cr6, [ip, #-444]!	; 0xfffffe44
 49c:	6c697562 	cfstr64vs	mvdx7, [r9], #-392	; 0xfffffe78
 4a0:	6e652d64 	cdpvs	13, 6, cr2, cr5, cr4, {3}
 4a4:	622e2f76 	eorvs	r2, lr, #472	; 0x1d8
 4a8:	646c6975 	strbtvs	r6, [ip], #-2421	; 0xfffff68b
 4ac:	6d72612f 	ldfvse	f6, [r2, #-188]!	; 0xffffff44
 4b0:	6b6e752d 	blvs	1b9d96c <_start-0x85c62694>
 4b4:	6e776f6e 	cdpvs	15, 7, cr6, cr7, cr14, {3}
 4b8:	6e696c2d 	cdpvs	12, 6, cr6, cr9, cr13, {1}
 4bc:	672d7875 			; <UNDEFINED> instruction: 0x672d7875
 4c0:	6165756e 	cmnvs	r5, lr, ror #10
 4c4:	66686962 	strbtvs	r6, [r8], -r2, ror #18
 4c8:	6372732f 	cmnvs	r2, #-1140850688	; 0xbc000000
 4cc:	6363672f 	cmnvs	r3, #12320768	; 0xbc0000
 4d0:	62696c2f 	rsbvs	r6, r9, #12032	; 0x2f00
 4d4:	2f636367 	svccs	0x00636367
 4d8:	692f2e2e 	stmdbvs	pc!, {r1, r2, r3, r5, r9, sl, fp, sp}	; <UNPREDICTABLE>
 4dc:	756c636e 	strbvc	r6, [ip, #-878]!	; 0xfffffc92
 4e0:	2e006564 	cfsh32cs	mvfx6, mvfx0, #52
 4e4:	2e2e2f2e 	cdpcs	15, 2, cr2, cr14, cr14, {1}
 4e8:	672f2e2f 	strvs	r2, [pc, -pc, lsr #28]!
 4ec:	2f006363 	svccs	0x00006363
 4f0:	756c6f56 	strbvc	r6, [ip, #-3926]!	; 0xfffff0aa
 4f4:	2f73656d 	svccs	0x0073656d
 4f8:	6f6f7478 	svcvs	0x006f7478
 4fc:	75622d6c 	strbvc	r2, [r2, #-3436]!	; 0xfffff294
 500:	2d646c69 	stclcs	12, cr6, [r4, #-420]!	; 0xfffffe5c
 504:	2f766e65 	svccs	0x00766e65
 508:	6975622e 	ldmdbvs	r5!, {r1, r2, r3, r5, r9, sp, lr}^
 50c:	612f646c 			; <UNDEFINED> instruction: 0x612f646c
 510:	752d6d72 	strvc	r6, [sp, #-3442]!	; 0xfffff28e
 514:	6f6e6b6e 	svcvs	0x006e6b6e
 518:	6c2d6e77 	stcvs	14, cr6, [sp], #-476	; 0xfffffe24
 51c:	78756e69 	ldmdavc	r5!, {r0, r3, r5, r6, r9, sl, fp, sp, lr}^
 520:	756e672d 	strbvc	r6, [lr, #-1837]!	; 0xfffff8d3
 524:	69626165 	stmdbvs	r2!, {r0, r2, r5, r6, r8, sp, lr}^
 528:	732f6668 			; <UNDEFINED> instruction: 0x732f6668
 52c:	672f6372 			; <UNDEFINED> instruction: 0x672f6372
 530:	6c2f6363 	stcvs	3, cr6, [pc], #-396	; 3ac <_start-0x877ffc54>
 534:	63676269 	cmnvs	r7, #-1879048186	; 0x90000006
 538:	2e2e2f63 	cdpcs	15, 2, cr2, cr14, cr3, {3}
 53c:	6363672f 	cmnvs	r3, #12320768	; 0xbc0000
 540:	6e6f632f 	cdpvs	3, 6, cr6, cr15, cr15, {1}
 544:	2f676966 	svccs	0x00676966
 548:	006d7261 	rsbeq	r7, sp, r1, ror #4
 54c:	62696c00 	rsbvs	r6, r9, #0, 24
 550:	32636367 	rsbcc	r6, r3, #-1677721599	; 0x9c000001
 554:	0100632e 	tsteq	r0, lr, lsr #6
 558:	74730000 	ldrbtvc	r0, [r3], #-0
 55c:	66656464 	strbtvs	r6, [r5], -r4, ror #8
 560:	0200682e 	andeq	r6, r0, #3014656	; 0x2e0000
 564:	79740000 	ldmdbvc	r4!, {}^	; <UNPREDICTABLE>
 568:	2e736570 	mrccs	5, 3, r6, cr3, cr0, {3}
 56c:	00030068 	andeq	r0, r3, r8, rrx
 570:	72747300 	rsbsvc	r7, r4, #0, 6
 574:	5f746375 	svcpl	0x00746375
 578:	454c4946 	strbmi	r4, [ip, #-2374]	; 0xfffff6ba
 57c:	0400682e 	streq	r6, [r0], #-2094	; 0xfffff7d2
 580:	49460000 	stmdbmi	r6, {}^	; <UNPREDICTABLE>
 584:	682e454c 	stmdavs	lr!, {r2, r3, r6, r8, sl, lr}
 588:	00000400 	andeq	r0, r0, r0, lsl #8
 58c:	69647473 	stmdbvs	r4!, {r0, r1, r4, r5, r6, sl, ip, sp, lr}^
 590:	00682e6f 	rsbeq	r2, r8, pc, ror #28
 594:	73000005 	movwvc	r0, #5
 598:	655f7379 	ldrbvs	r7, [pc, #-889]	; 227 <_start-0x877ffdd9>
 59c:	696c7272 	stmdbvs	ip!, {r1, r4, r5, r6, r9, ip, sp, lr}^
 5a0:	682e7473 	stmdavs	lr!, {r0, r1, r4, r5, r6, sl, ip, sp, lr}
 5a4:	00000300 	andeq	r0, r0, r0, lsl #6
 5a8:	6e727265 	cdpvs	2, 7, cr7, cr2, cr5, {3}
 5ac:	00682e6f 	rsbeq	r2, r8, pc, ror #28
 5b0:	75000005 	strvc	r0, [r0, #-5]
 5b4:	7473696e 	ldrbtvc	r6, [r3], #-2414	; 0xfffff692
 5b8:	00682e64 	rsbeq	r2, r8, r4, ror #28
 5bc:	67000005 	strvs	r0, [r0, -r5]
 5c0:	706f7465 	rsbvc	r7, pc, r5, ror #8
 5c4:	6f635f74 	svcvs	0x00635f74
 5c8:	682e6572 	stmdavs	lr!, {r1, r4, r5, r6, r8, sl, sp, lr}
 5cc:	00000300 	andeq	r0, r0, r0, lsl #6
 5d0:	656d6974 	strbvs	r6, [sp, #-2420]!	; 0xfffff68c
 5d4:	0500682e 	streq	r6, [r0, #-2094]	; 0xfffff7d2
 5d8:	61680000 	cmnvs	r8, r0
 5dc:	61746873 	cmnvs	r4, r3, ror r8
 5e0:	00682e62 	rsbeq	r2, r8, r2, ror #28
 5e4:	61000006 	tstvs	r0, r6
 5e8:	692d6d72 	pushvs	{r1, r4, r5, r6, r8, sl, fp, sp, lr}
 5ec:	682e6173 	stmdavs	lr!, {r0, r1, r4, r5, r6, r8, sp, lr}
 5f0:	00000700 	andeq	r0, r0, r0, lsl #14
 5f4:	2d6d7261 	sfmcs	f7, 2, [sp, #-388]!	; 0xfffffe7c
 5f8:	2e757063 	cdpcs	0, 7, cr7, cr5, cr3, {3}
 5fc:	00070068 	andeq	r0, r7, r8, rrx
 600:	736e6900 	cmnvc	lr, #0, 18
 604:	6f632d6e 	svcvs	0x00632d6e
 608:	6174736e 	cmnvs	r4, lr, ror #6
 60c:	2e73746e 	cdpcs	4, 7, cr7, cr3, cr14, {3}
 610:	00070068 	andeq	r0, r7, r8, rrx
 614:	6d726100 	ldfvse	f6, [r2, #-0]
 618:	0800682e 	stmdaeq	r0, {r1, r2, r3, r5, fp, sp, lr}
 61c:	696c0000 	stmdbvs	ip!, {}^	; <UNPREDICTABLE>
 620:	63636762 	cmnvs	r3, #25690112	; 0x1880000
 624:	00682e32 	rsbeq	r2, r8, r2, lsr lr
 628:	00000001 	andeq	r0, r0, r1
 62c:	05000105 	streq	r0, [r0, #-261]	; 0xfffffefb
 630:	803c0402 	eorshi	r0, ip, r2, lsl #8
 634:	07b30387 	ldreq	r0, [r3, r7, lsl #7]!
 638:	13030501 	movwne	r0, #13569	; 0x3501
 63c:	03060605 	movweq	r0, #26117	; 0x6605
 640:	0105010b 	tsteq	r5, fp, lsl #2
 644:	052e7403 	streq	r7, [lr, #-1027]!	; 0xfffffbfd
 648:	2e0c0306 	cdpcs	3, 0, cr0, cr12, cr6, {0}
 64c:	74030105 	strvc	r0, [r3], #-261	; 0xfffffefb
 650:	0603052e 	streq	r0, [r3], -lr, lsr #10
 654:	010a034c 	tsteq	sl, ip, asr #6
 658:	03060105 	movweq	r0, #24837	; 0x6105
 65c:	06050174 			; <UNDEFINED> instruction: 0x06050174
 660:	052e0c03 	streq	r0, [lr, #-3075]!	; 0xfffff3fd
 664:	05300607 	ldreq	r0, [r0, #-1543]!	; 0xfffff9f9
 668:	0501060d 	streq	r0, [r1, #-1549]	; 0xfffff9f3
 66c:	05830607 	streq	r0, [r3, #1543]	; 0x607
 670:	4a01060d 	bmi	41eac <_start-0x877be154>
 674:	4c060705 	stcmi	7, cr0, [r6], {5}
 678:	01060905 	tsteq	r6, r5, lsl #18
 67c:	2f060705 	svccs	0x00060705
 680:	01060905 	tsteq	r6, r5, lsl #18
 684:	052e2e2e 	streq	r2, [lr, #-3630]!	; 0xfffff1d2
 688:	056d0607 	strbeq	r0, [sp, #-1543]!	; 0xfffff9f9
 68c:	2e01060a 	cfmadd32cs	mvax0, mvfx0, mvfx1, mvfx10
 690:	4c060405 	cfstrsmi	mvf0, [r6], {5}
 694:	13060605 	movwne	r0, #26117	; 0x6605
 698:	060405b9 			; <UNDEFINED> instruction: 0x060405b9
 69c:	0606054b 	streq	r0, [r6], -fp, asr #10
 6a0:	06070501 	streq	r0, [r7], -r1, lsl #10
 6a4:	060a0569 	streq	r0, [sl], -r9, ror #10
 6a8:	06040501 	streq	r0, [r4], -r1, lsl #10
 6ac:	0606054c 	streq	r0, [r6], -ip, asr #10
 6b0:	04052e01 	streq	r2, [r5], #-3585	; 0xfffff1ff
 6b4:	05136a06 	ldreq	r6, [r3, #-2566]	; 0xfffff5fa
 6b8:	0b051408 	bleq	1456e0 <_start-0x876ba920>
 6bc:	03050106 	movweq	r0, #20742	; 0x5106
 6c0:	0b056706 	bleq	15a2e0 <_start-0x876a5d20>
 6c4:	10050106 	andne	r0, r5, r6, lsl #2
 6c8:	2e0b054a 	cfsh32cs	mvfx0, mvfx11, #42
 6cc:	052e1005 	streq	r1, [lr, #-5]!
 6d0:	0b052e05 	bleq	14beec <_start-0x876b4114>
 6d4:	2e05052e 	cfsh32cs	mvfx0, mvfx5, #30
 6d8:	31060805 	tstcc	r6, r5, lsl #16
 6dc:	13060605 	movwne	r0, #26117	; 0x6605
 6e0:	0604052e 	streq	r0, [r4], -lr, lsr #10
 6e4:	06060532 			; <UNDEFINED> instruction: 0x06060532
 6e8:	052e2f01 	streq	r2, [lr, #-3841]!	; 0xfffff0ff
 6ec:	0605670f 	streq	r6, [r5], -pc, lsl #14
 6f0:	0604052c 	streq	r0, [r4], -ip, lsr #10
 6f4:	0606052f 	streq	r0, [r6], -pc, lsr #10
 6f8:	06040501 	streq	r0, [r4], -r1, lsl #10
 6fc:	060f054b 	streq	r0, [pc], -fp, asr #10
 700:	9e060501 	cfsh32ls	mvfx0, mvfx6, #1
 704:	4e060305 	cdpmi	3, 0, cr0, cr6, cr5, {0}
 708:	01060605 	tsteq	r6, r5, lsl #12
 70c:	2f060505 	svccs	0x00060505
 710:	14060105 	strne	r0, [r6], #-261	; 0xfffffefb
 714:	052c0905 	streq	r0, [ip, #-2309]!	; 0xfffff6fb
 718:	052f0603 	streq	r0, [pc, #-1539]!	; 11d <_start-0x877ffee3>
 71c:	05130601 	ldreq	r0, [r3, #-1537]	; 0xfffff9ff
 720:	2e47030b 	cdpcs	3, 4, cr0, cr7, cr11, {0}
 724:	03060305 	movweq	r0, #25349	; 0x6305
 728:	05054a2a 	streq	r4, [r5, #-2602]	; 0xfffff5d6
 72c:	2e2e0106 	sufcse	f0, f6, f6
 730:	56030b05 	strpl	r0, [r3], -r5, lsl #22
 734:	0004022e 	andeq	r0, r4, lr, lsr #4
 738:	Address 0x0000000000000738 is out of bounds.


Disassembly of section .debug_info:

00000000 <.debug_info>:
   0:	00000022 	andeq	r0, r0, r2, lsr #32
   4:	00000002 	andeq	r0, r0, r2
   8:	01040000 	mrseq	r0, (UNDEF: 4)
   c:	00000000 	andeq	r0, r0, r0
  10:	87803a1c 	usada8hi	r0, ip, sl, r3
  14:	87803ae4 	strhi	r3, [r0, r4, ror #21]
  18:	00000000 	andeq	r0, r0, r0
  1c:	00000062 	andeq	r0, r0, r2, rrx
  20:	000000da 	ldrdeq	r0, [r0], -sl
  24:	00228001 	eoreq	r8, r2, r1
  28:	00020000 	andeq	r0, r2, r0
  2c:	00000014 	andeq	r0, r0, r4, lsl r0
  30:	00ae0104 	adceq	r0, lr, r4, lsl #2
  34:	3ae40000 	bcc	ff90003c <__bss_end+0x780fb404>
  38:	3bb88780 	blcc	fee21e40 <__bss_end+0x7761d208>
  3c:	00e68780 	rsceq	r8, r6, r0, lsl #15
  40:	00620000 	rsbeq	r0, r2, r0
  44:	00da0000 	sbcseq	r0, sl, r0
  48:	80010000 	andhi	r0, r1, r0
  4c:	00000022 	andeq	r0, r0, r2, lsr #32
  50:	00280002 	eoreq	r0, r8, r2
  54:	01040000 	mrseq	r0, (UNDEF: 4)
  58:	0000015e 	andeq	r0, r0, lr, asr r1
  5c:	87803bb8 			; <UNDEFINED> instruction: 0x87803bb8
  60:	87803bf4 			; <UNDEFINED> instruction: 0x87803bf4
  64:	000000e6 	andeq	r0, r0, r6, ror #1
  68:	00000062 	andeq	r0, r0, r2, rrx
  6c:	000000da 	ldrdeq	r0, [r0], -sl
  70:	00228001 	eoreq	r8, r2, r1
  74:	00020000 	andeq	r0, r2, r0
  78:	0000003c 	andeq	r0, r0, ip, lsr r0
  7c:	01f00104 	mvnseq	r0, r4, lsl #2
  80:	3bf40000 	blcc	ffd00088 <__bss_end+0x784fb450>
  84:	3c048780 	stccc	7, cr8, [r4], {128}	; 0x80
  88:	00008780 	andeq	r8, r0, r0, lsl #15
  8c:	00620000 	rsbeq	r0, r2, r0
  90:	00da0000 	sbcseq	r0, sl, r0
  94:	80010000 	andhi	r0, r1, r0
  98:	00000e11 	andeq	r0, r0, r1, lsl lr
  9c:	00500004 	subseq	r0, r0, r4
  a0:	01040000 	mrseq	r0, (UNDEF: 4)
  a4:	00000ca0 	andeq	r0, r0, r0, lsr #25
  a8:	0006c30c 	andeq	ip, r6, ip, lsl #6
  ac:	00006200 	andeq	r6, r0, r0, lsl #4
  b0:	803c0400 	eorshi	r0, ip, r0, lsl #8
  b4:	00014887 	andeq	r4, r1, r7, lsl #17
  b8:	00028700 	andeq	r8, r2, r0, lsl #14
  bc:	07080200 	streq	r0, [r8, -r0, lsl #4]
  c0:	0000063d 	andeq	r0, r0, sp, lsr r6
  c4:	69050403 	stmdbvs	r5, {r0, r1, sl}
  c8:	0400746e 	streq	r7, [r0], #-1134	; 0xfffffb92
  cc:	00000863 	andeq	r0, r0, r3, ror #16
  d0:	3f17d802 	svccc	0x0017d802
  d4:	02000000 	andeq	r0, r0, #0, 0
  d8:	06470704 	strbeq	r0, [r7], -r4, lsl #14
  dc:	08020000 	stmdaeq	r2, {}	; <UNPREDICTABLE>
  e0:	000c9205 	andeq	r9, ip, r5, lsl #4
  e4:	04080200 	streq	r0, [r8], #-512	; 0xfffffe00
  e8:	00001023 	andeq	r1, r0, r3, lsr #32
  ec:	01020405 	tsteq	r2, r5, lsl #8
  f0:	0014ad08 	andseq	sl, r4, r8, lsl #26
  f4:	07020200 	streq	r0, [r2, -r0, lsl #4]
  f8:	00000ffc 	strdeq	r0, [r0], -ip
  fc:	42070402 	andmi	r0, r7, #33554432	; 0x2000000
 100:	02000006 	andeq	r0, r0, #6, 0
 104:	14af0601 	strtne	r0, [pc], #1537	; 10c <_start-0x877ffef4>
 108:	02020000 	andeq	r0, r2, #0, 0
 10c:	00112305 	andseq	r2, r1, r5, lsl #6
 110:	0edf0400 	cdpeq	4, 13, cr0, cr15, cr0, {0}
 114:	41030000 	mrsmi	r0, (UNDEF: 3)
 118:	00004625 	andeq	r4, r0, r5, lsr #12
 11c:	16070400 	strne	r0, [r7], -r0, lsl #8
 120:	96030000 	strls	r0, [r3], -r0
 124:	00009119 	andeq	r9, r0, r9, lsl r1
 128:	05040200 	streq	r0, [r4, #-512]	; 0xfffffe00
 12c:	00000c97 	muleq	r0, r7, ip
 130:	00174004 	andseq	r4, r7, r4
 134:	1b970300 	blne	fe5c0d3c <__bss_end+0x76dbc104>
 138:	00000079 	andeq	r0, r0, r9, ror r0
 13c:	00aa0406 	adceq	r0, sl, r6, lsl #8
 140:	01020000 	mrseq	r0, (UNDEF: 2)
 144:	0014b608 	andseq	fp, r4, r8, lsl #12
 148:	00aa0700 	adceq	r0, sl, r0, lsl #14
 14c:	19080000 	stmdbne	r8, {}	; <UNPREDICTABLE>
 150:	98000014 	stmdals	r0, {r2, r4}
 154:	3d083104 	stfccs	f3, [r8, #-16]
 158:	09000002 	stmdbeq	r0, {r1}
 15c:	0000034f 	andeq	r0, r0, pc, asr #6
 160:	2c073304 	stccs	3, cr3, [r7], {4}
 164:	00000000 	andeq	r0, r0, r0
 168:	000a9109 	andeq	r9, sl, r9, lsl #2
 16c:	09360400 	ldmdbeq	r6!, {sl}
 170:	000000a4 	andeq	r0, r0, r4, lsr #1
 174:	10fb0904 	rscsne	r0, fp, r4, lsl #18
 178:	37040000 	strcc	r0, [r4, -r0]
 17c:	0000a409 	andeq	sl, r0, r9, lsl #8
 180:	95090800 	strls	r0, [r9, #-2048]	; 0xfffff800
 184:	04000008 	streq	r0, [r0], #-8
 188:	00a40938 	adceq	r0, r4, r8, lsr r9
 18c:	090c0000 	stmdbeq	ip, {}	; <UNPREDICTABLE>
 190:	00000c44 	andeq	r0, r0, r4, asr #24
 194:	a4093904 	strge	r3, [r9], #-2308	; 0xfffff6fc
 198:	10000000 	andne	r0, r0, r0
 19c:	0014fd09 	andseq	pc, r4, r9, lsl #26
 1a0:	093a0400 	ldmdbeq	sl!, {sl}
 1a4:	000000a4 	andeq	r0, r0, r4, lsr #1
 1a8:	030a0914 	movweq	r0, #43284	; 0xa914
 1ac:	3b040000 	blcc	1001b4 <_start-0x876ffe4c>
 1b0:	0000a409 	andeq	sl, r0, r9, lsl #8
 1b4:	53091800 	movwpl	r1, #38912	; 0x9800
 1b8:	04000017 	streq	r0, [r0], #-23	; 0xffffffe9
 1bc:	00a4093c 	adceq	r0, r4, ip, lsr r9
 1c0:	091c0000 	ldmdbeq	ip, {}	; <UNPREDICTABLE>
 1c4:	00000219 	andeq	r0, r0, r9, lsl r2
 1c8:	a4093d04 	strge	r3, [r9], #-3332	; 0xfffff2fc
 1cc:	20000000 	andcs	r0, r0, r0
 1d0:	0010c509 	andseq	ip, r0, r9, lsl #10
 1d4:	09400400 	stmdbeq	r0, {sl}^
 1d8:	000000a4 	andeq	r0, r0, r4, lsr #1
 1dc:	07340924 	ldreq	r0, [r4, -r4, lsr #18]!
 1e0:	41040000 	mrsmi	r0, (UNDEF: 4)
 1e4:	0000a409 	andeq	sl, r0, r9, lsl #8
 1e8:	84092800 	strhi	r2, [r9], #-2048	; 0xfffff800
 1ec:	04000005 	streq	r0, [r0], #-5
 1f0:	00a40942 	adceq	r0, r4, r2, asr #18
 1f4:	092c0000 	stmdbeq	ip!, {}	; <UNPREDICTABLE>
 1f8:	0000087c 	andeq	r0, r0, ip, ror r8
 1fc:	56164404 	ldrpl	r4, [r6], -r4, lsl #8
 200:	30000002 	andcc	r0, r0, r2
 204:	0016ff09 	andseq	pc, r6, r9, lsl #30
 208:	14460400 	strbne	r0, [r6], #-1024	; 0xfffffc00
 20c:	0000025c 	andeq	r0, r0, ip, asr r2
 210:	07ad0934 			; <UNDEFINED> instruction: 0x07ad0934
 214:	48040000 	stmdami	r4, {}	; <UNPREDICTABLE>
 218:	00002c07 	andeq	r2, r0, r7, lsl #24
 21c:	9b093800 	blls	24e224 <_start-0x875b1ddc>
 220:	04000003 	streq	r0, [r0], #-3
 224:	002c0749 	eoreq	r0, ip, r9, asr #14
 228:	093c0000 	ldmdbeq	ip!, {}	; <UNPREDICTABLE>
 22c:	000013ea 	andeq	r1, r0, sl, ror #7
 230:	850b4a04 	strhi	r4, [fp, #-2564]	; 0xfffff5fc
 234:	40000000 	andmi	r0, r0, r0
 238:	0008a309 	andeq	sl, r8, r9, lsl #6
 23c:	124d0400 	subne	r0, sp, #0, 8
 240:	0000005d 	andeq	r0, r0, sp, asr r0
 244:	0f8c0944 	svceq	0x008c0944
 248:	4e040000 	cdpmi	0, 0, cr0, cr4, cr0, {0}
 24c:	00006b0f 	andeq	r6, r0, pc, lsl #22
 250:	8d094600 	stchi	6, cr4, [r9, #-0]
 254:	04000001 	streq	r0, [r0], #-1
 258:	0262084f 	rsbeq	r0, r2, #5177344	; 0x4f0000
 25c:	09470000 	stmdbeq	r7, {}^	; <UNPREDICTABLE>
 260:	000013b3 			; <UNDEFINED> instruction: 0x000013b3
 264:	720f5104 	andvc	r5, pc, #1
 268:	48000002 	stmdami	r0, {r1}
 26c:	0013ee09 	andseq	lr, r3, r9, lsl #28
 270:	0d590400 	cfldrdeq	mvd0, [r9, #-0]
 274:	00000098 	muleq	r0, r8, r0
 278:	13c90950 	bicne	r0, r9, #80, 18	; 0x140000
 27c:	5b040000 	blpl	100284 <_start-0x876ffd7c>
 280:	00027d17 	andeq	r7, r2, r7, lsl sp
 284:	7f095800 	svcvc	0x00095800
 288:	04000012 	streq	r0, [r0], #-18	; 0xffffffee
 28c:	0288195c 	addeq	r1, r8, #92, 18	; 0x170000
 290:	095c0000 	ldmdbeq	ip, {}^	; <UNPREDICTABLE>
 294:	0000032d 	andeq	r0, r0, sp, lsr #6
 298:	5c145d04 	ldcpl	13, cr5, [r4], {4}
 29c:	60000002 	andvs	r0, r0, r2
 2a0:	000ee809 	andeq	lr, lr, r9, lsl #16
 2a4:	095e0400 	ldmdbeq	lr, {sl}^
 2a8:	00000054 	andeq	r0, r0, r4, asr r0
 2ac:	0efd0964 	vcvtreq.s32.f16	s1, s9	; <UNPREDICTABLE>
 2b0:	5f040000 	svcpl	0x00040000
 2b4:	0000330a 	andeq	r3, r0, sl, lsl #6
 2b8:	2e096800 	cdpcs	8, 0, cr6, cr9, cr0, {0}
 2bc:	0400000a 	streq	r0, [r0], #-10
 2c0:	002c0760 	eoreq	r0, ip, r0, ror #14
 2c4:	096c0000 	stmdbeq	ip!, {}^	; <UNPREDICTABLE>
 2c8:	0000174a 	andeq	r1, r0, sl, asr #14
 2cc:	8e086204 	cdphi	2, 0, cr6, cr8, cr4, {0}
 2d0:	70000002 	andvc	r0, r0, r2
 2d4:	141d0400 	ldrne	r0, [sp], #-1024	; 0xfffffc00
 2d8:	07050000 	streq	r0, [r5, -r0]
 2dc:	0000b619 	andeq	fp, r0, r9, lsl r6
 2e0:	019e0a00 	orrseq	r0, lr, r0, lsl #20
 2e4:	2b040000 	blcs	1002ec <_start-0x876ffd14>
 2e8:	095b0b0e 	ldmdbeq	fp, {r1, r2, r3, r8, r9, fp}^
 2ec:	04060000 	streq	r0, [r6], #-0
 2f0:	00000251 	andeq	r0, r0, r1, asr r2
 2f4:	00b60406 	adcseq	r0, r6, r6, lsl #8
 2f8:	aa0c0000 	bge	300300 <_start-0x874ffd00>
 2fc:	72000000 	andvc	r0, r0, #0, 0
 300:	0d000002 	stceq	0, cr0, [r0, #-8]
 304:	0000003f 	andeq	r0, r0, pc, lsr r0
 308:	04060000 	streq	r0, [r6], #-0
 30c:	00000249 	andeq	r0, r0, r9, asr #4
 310:	0013c60b 	andseq	ip, r3, fp, lsl #12
 314:	78040600 	stmdavc	r4, {r9, sl}
 318:	0b000002 	bleq	328 <_start-0x877ffcd8>
 31c:	0000127c 	andeq	r1, r0, ip, ror r2
 320:	02830406 	addeq	r0, r3, #100663296	; 0x6000000
 324:	aa0c0000 	bge	30032c <_start-0x874ffcd4>
 328:	9e000000 	cdpls	0, 0, cr0, cr0, cr0, {0}
 32c:	0d000002 	stceq	0, cr0, [r0, #-8]
 330:	0000003f 	andeq	r0, r0, pc, lsr r0
 334:	04060027 	streq	r0, [r6], #-39	; 0xffffffd9
 338:	000000b1 	strheq	r0, [r0], -r1
 33c:	00029e07 	andeq	r9, r2, r7, lsl #28
 340:	09010e00 	stmdbeq	r1, {r9, sl, fp}
 344:	89060000 	stmdbhi	r6, {}	; <UNPREDICTABLE>
 348:	0002b50e 	andeq	fp, r2, lr, lsl #10
 34c:	3d040600 	stccc	6, cr0, [r4, #-0]
 350:	0e000002 	cdpeq	0, 0, cr0, cr0, cr2, {0}
 354:	00000570 	andeq	r0, r0, r0, ror r5
 358:	b50e8a06 	strlt	r8, [lr, #-2566]	; 0xfffff5fa
 35c:	0e000002 	cdpeq	0, 0, cr0, cr0, cr2, {0}
 360:	000001ec 	andeq	r0, r0, ip, ror #3
 364:	b50e8b06 	strlt	r8, [lr, #-2822]	; 0xfffff4fa
 368:	0e000002 	cdpeq	0, 0, cr0, cr0, cr2, {0}
 36c:	0000081e 	andeq	r0, r0, lr, lsl r8
 370:	2c0c1a07 			; <UNDEFINED> instruction: 0x2c0c1a07
 374:	0c000000 	stceq	0, cr0, [r0], {-0}
 378:	000002a4 	andeq	r0, r0, r4, lsr #5
 37c:	000002ea 	andeq	r0, r0, sl, ror #5
 380:	df07000f 	svcle	0x0007000f
 384:	0e000002 	cdpeq	0, 0, cr0, cr0, cr2, {0}
 388:	00001640 	andeq	r1, r0, r0, asr #12
 38c:	ea1a1b07 	b	686fb0 <_start-0x87179050>
 390:	0e000002 	cdpeq	0, 0, cr0, cr0, cr2, {0}
 394:	0000081d 	andeq	r0, r0, sp, lsl r8
 398:	2c0c1e07 	stccs	14, cr1, [ip], {7}
 39c:	0e000000 	cdpeq	0, 0, cr0, cr0, cr0, {0}
 3a0:	0000163f 	andeq	r1, r0, pc, lsr r6
 3a4:	ea1a1f07 	b	687fc8 <_start-0x87178038>
 3a8:	0e000002 	cdpeq	0, 0, cr0, cr0, cr2, {0}
 3ac:	00000784 	andeq	r0, r0, r4, lsl #15
 3b0:	a40e2d08 	strge	r2, [lr], #-3336	; 0xfffff2f8
 3b4:	0e000000 	cdpeq	0, 0, cr0, cr0, cr0, {0}
 3b8:	000001ce 	andeq	r0, r0, lr, asr #3
 3bc:	a40e2e08 	strge	r2, [lr], #-3592	; 0xfffff1f8
 3c0:	06000000 	streq	r0, [r0], -r0
 3c4:	00033104 	andeq	r3, r3, r4, lsl #2
 3c8:	002c1000 	eoreq	r1, ip, r0
 3cc:	03450000 	movteq	r0, #20480	; 0x5000
 3d0:	45110000 	ldrmi	r0, [r1, #-0]
 3d4:	11000003 	tstne	r0, r3
 3d8:	00000345 	andeq	r0, r0, r5, asr #6
 3dc:	4b040600 	blmi	101be4 <_start-0x876fe41c>
 3e0:	12000003 	andne	r0, r0, #3, 0
 3e4:	0012a913 	andseq	sl, r2, r3, lsl r9
 3e8:	021f0900 	andseq	r0, pc, #0, 18
 3ec:	0003590f 	andeq	r5, r3, pc, lsl #18
 3f0:	a4040600 	strge	r0, [r4], #-1536	; 0xfffffa00
 3f4:	13000000 	movwne	r0, #0
 3f8:	000012ab 	andeq	r1, r0, fp, lsr #5
 3fc:	0f022109 	svceq	0x00022109
 400:	00000359 	andeq	r0, r0, r9, asr r3
 404:	000fda0e 	andeq	sp, pc, lr, lsl #20
 408:	0e240a00 	vmuleq.f32	s0, s8, s0
 40c:	000000a4 	andeq	r0, r0, r4, lsr #1
 410:	000e440e 	andeq	r4, lr, lr, lsl #8
 414:	0c320a00 			; <UNDEFINED> instruction: 0x0c320a00
 418:	0000002c 	andeq	r0, r0, ip, lsr #32
 41c:	000f9b0e 	andeq	r9, pc, lr, lsl #22
 420:	0c370a00 			; <UNDEFINED> instruction: 0x0c370a00
 424:	0000002c 	andeq	r0, r0, ip, lsr #32
 428:	00027d0e 	andeq	r7, r2, lr, lsl #26
 42c:	0c3b0a00 			; <UNDEFINED> instruction: 0x0c3b0a00
 430:	0000002c 	andeq	r0, r0, ip, lsr #32
 434:	0000a40c 	andeq	sl, r0, ip, lsl #8
 438:	0003ac00 	andeq	sl, r3, r0, lsl #24
 43c:	003f0d00 	eorseq	r0, pc, r0, lsl #26
 440:	00010000 	andeq	r0, r1, r0
 444:	0014ce0e 	andseq	ip, r4, lr, lsl #28
 448:	0e9f0b00 	vfnmseq.f64	d0, d15, d0
 44c:	0000039c 	muleq	r0, ip, r3
 450:	00172a0e 	andseq	r2, r7, lr, lsl #20
 454:	0ca00b00 	vstmiaeq	r0!, {d0-d-1}
 458:	0000002c 	andeq	r0, r0, ip, lsr #32
 45c:	0004c60e 	andeq	ip, r4, lr, lsl #12
 460:	11a10b00 			; <UNDEFINED> instruction: 0x11a10b00
 464:	00000091 	muleq	r0, r1, r0
 468:	0014d00e 	andseq	sp, r4, lr
 46c:	0ea60b00 	vfmaeq.f64	d0, d6, d0
 470:	0000039c 	muleq	r0, ip, r3
 474:	00172c0e 	andseq	r2, r7, lr, lsl #24
 478:	0cae0b00 	vstmiaeq	lr!, {d0-d-1}
 47c:	0000002c 	andeq	r0, r0, ip, lsr #32
 480:	0004c80e 	andeq	ip, r4, lr, lsl #16
 484:	11af0b00 			; <UNDEFINED> instruction: 0x11af0b00
 488:	00000091 	muleq	r0, r1, r0
 48c:	00033b13 	andeq	r3, r3, r3, lsl fp
 490:	01180b00 	tsteq	r8, r0, lsl #22
 494:	00002c0c 	andeq	r2, r0, ip, lsl #24
 498:	051b0400 	ldreq	r0, [fp, #-1024]	; 0xfffffc00
 49c:	2a0c0000 	bcs	3004a4 <_start-0x874ffb5c>
 4a0:	00003f16 	andeq	r3, r0, r6, lsl pc
 4a4:	0a6a0400 	beq	1a814ac <_start-0x85d7eb54>
 4a8:	2f0c0000 	svccs	0x000c0000
 4ac:	00041915 	andeq	r1, r4, r5, lsl r9
 4b0:	1f040600 	svcne	0x00040600
 4b4:	10000004 	andne	r0, r0, r4
 4b8:	00000401 	andeq	r0, r0, r1, lsl #8
 4bc:	0000042e 	andeq	r0, r0, lr, lsr #8
 4c0:	00034511 	andeq	r4, r3, r1, lsl r5
 4c4:	f5040000 			; <UNDEFINED> instruction: 0xf5040000
 4c8:	0c00000e 	stceq	0, cr0, [r0], {14}
 4cc:	032b0f36 			; <UNDEFINED> instruction: 0x032b0f36
 4d0:	dd0e0000 	stcle	0, cr0, [lr, #-0]
 4d4:	0c00000d 	stceq	0, cr0, [r0], {13}
 4d8:	040d12bb 	streq	r1, [sp], #-699	; 0xfffffd45
 4dc:	0b0e0000 	bleq	3804e4 <_start-0x8747fb1c>
 4e0:	0c000015 	stceq	0, cr0, [r0], {21}
 4e4:	042e10be 	strteq	r1, [lr], #-190	; 0xffffff42
 4e8:	78140000 	ldmdavc	r4, {}	; <UNPREDICTABLE>
 4ec:	07000009 	streq	r0, [r0, -r9]
 4f0:	00003f04 	andeq	r3, r0, r4, lsl #30
 4f4:	06170d00 	ldreq	r0, [r7], -r0, lsl #26
 4f8:	0000057f 	andeq	r0, r0, pc, ror r5
 4fc:	00036a15 	andeq	r6, r3, r5, lsl sl
 500:	3e150000 	cdpcc	0, 1, cr0, cr5, cr0, {0}
 504:	01000008 	tsteq	r0, r8
 508:	00045515 	andeq	r5, r4, r5, lsl r5
 50c:	f6150200 			; <UNDEFINED> instruction: 0xf6150200
 510:	03000013 	movweq	r0, #19
 514:	000e6b15 	andeq	r6, lr, r5, lsl fp
 518:	b3150400 	tstlt	r5, #0, 8
 51c:	05000012 	streq	r0, [r0, #-18]	; 0xffffffee
 520:	0011be15 	andseq	fp, r1, r5, lsl lr
 524:	67150600 	ldrvs	r0, [r5, -r0, lsl #12]
 528:	0700000b 	streq	r0, [r0, -fp]
 52c:	0012c815 	andseq	ip, r2, r5, lsl r8
 530:	d6150800 	ldrle	r0, [r5], -r0, lsl #16
 534:	09000012 	stmdbeq	r0, {r1, r4}
 538:	0013b915 	andseq	fp, r3, r5, lsl r9
 53c:	a3150a00 	tstge	r5, #0, 20
 540:	0b00000d 	bleq	57c <_start-0x877ffa84>
 544:	00057715 	andeq	r7, r5, r5, lsl r7
 548:	01150c00 	tsteq	r5, r0, lsl #24
 54c:	0d00000a 	stceq	0, cr0, [r0, #-40]	; 0xffffffd8
 550:	00131f15 	andseq	r1, r3, r5, lsl pc
 554:	bc150e00 	ldclt	14, cr0, [r5], {-0}
 558:	0f000009 	svceq	0x00000009
 55c:	0009d215 	andeq	sp, r9, r5, lsl r2
 560:	b5151000 	ldrlt	r1, [r5, #-0]
 564:	11000004 	tstne	r0, r4
 568:	000e3515 	andeq	r3, lr, r5, lsl r5
 56c:	29151200 	ldmdbcs	r5, {r9, ip}
 570:	13000009 	movwne	r0, #9
 574:	00173515 	andseq	r3, r7, r5, lsl r5
 578:	2f151400 	svccs	0x00151400
 57c:	1500000f 	strne	r0, [r0, #-15]
 580:	000b7515 	andeq	r7, fp, r5, lsl r5
 584:	f2151600 	vmax.s16	d1, d5, d0
 588:	17000003 	strne	r0, [r0, -r3]
 58c:	00142215 	andseq	r2, r4, r5, lsl r2
 590:	89151800 	ldmdbhi	r5, {fp, ip}
 594:	19000015 	stmdbne	r0, {r0, r2, r4}
 598:	00143015 	andseq	r3, r4, r5, lsl r0
 59c:	84151a00 	ldrhi	r1, [r5], #-2560	; 0xfffff600
 5a0:	1b000009 	blne	5cc <_start-0x877ffa34>
 5a4:	00143e15 	andseq	r3, r4, r5, lsl lr
 5a8:	c0151c00 	andsgt	r1, r5, r0, lsl #24
 5ac:	1d000001 	stcne	0, cr0, [r0, #-4]
 5b0:	00144c15 	andseq	r4, r4, r5, lsl ip
 5b4:	5a151e00 	bpl	547dbc <_start-0x872b8244>
 5b8:	1f000014 	svcne	0x00000014
 5bc:	00014415 	andeq	r4, r1, r5, lsl r4
 5c0:	c6152000 	ldrgt	r2, [r5], -r0
 5c4:	21000015 	tstcs	r0, r5, lsl r0
 5c8:	0003d315 	andeq	sp, r3, r5, lsl r3
 5cc:	0c152200 	lfmeq	f2, 4, [r5], {-0}
 5d0:	23000014 	movwcs	r0, #20
 5d4:	000bf215 	andeq	pc, fp, r5, lsl r2	; <UNPREDICTABLE>
 5d8:	af152400 	svcge	0x00152400
 5dc:	25000011 	strcs	r0, [r0, #-17]	; 0xffffffef
 5e0:	000ada15 	andeq	sp, sl, r5, lsl sl
 5e4:	44152600 	ldrmi	r2, [r5], #-1536	; 0xfffffa00
 5e8:	27000007 	strcs	r0, [r0, -r7]
 5ec:	000af815 	andeq	pc, sl, r5, lsl r8	; <UNPREDICTABLE>
 5f0:	10152800 	andsne	r2, r5, r0, lsl #16
 5f4:	29000008 	stmdbcs	r0, {r3}
 5f8:	000b0815 	andeq	r0, fp, r5, lsl r8
 5fc:	85152a00 	ldrhi	r2, [r5, #-2560]	; 0xfffff600
 600:	2b00000c 	blcs	638 <_start-0x877ff9c8>
 604:	000a7415 	andeq	r7, sl, r5, lsl r4
 608:	b6152c00 	ldrlt	r2, [r5], -r0, lsl #24
 60c:	2d000010 	stccs	0, cr0, [r0, #-64]	; 0xffffffc0
 610:	0007b515 	andeq	fp, r7, r5, lsl r5
 614:	14002e00 	strne	r2, [r0], #-3584	; 0xfffff200
 618:	00000a0e 	andeq	r0, r0, lr, lsl #20
 61c:	003f0407 	eorseq	r0, pc, r7, lsl #8
 620:	170e0000 	strne	r0, [lr, -r0]
 624:	00083806 	andeq	r3, r8, r6, lsl #16
 628:	05981500 	ldreq	r1, [r8, #1280]	; 0x500
 62c:	15000000 	strne	r0, [r0, #-0]
 630:	0000164c 	andeq	r1, r0, ip, asr #12
 634:	05a81501 	streq	r1, [r8, #1281]!	; 0x501
 638:	15020000 	strne	r0, [r2, #-0]
 63c:	000005cb 	andeq	r0, r0, fp, asr #11
 640:	151b1503 	ldrne	r1, [fp, #-1283]	; 0xfffffafd
 644:	15040000 	strne	r0, [r4, #-0]
 648:	0000112d 	andeq	r1, r0, sp, lsr #2
 64c:	06621505 	strbteq	r1, [r2], -r5, lsl #10
 650:	15060000 	strne	r0, [r6, #-0]
 654:	0000086a 	andeq	r0, r0, sl, ror #16
 658:	05db1507 	ldrbeq	r1, [fp, #1287]	; 0x507
 65c:	15080000 	strne	r0, [r8, #-0]
 660:	00001719 	andeq	r1, r0, r9, lsl r7
 664:	02841509 	addeq	r1, r4, #37748736	; 0x2400000
 668:	150a0000 	strne	r0, [sl, #-0]
 66c:	0000162e 	andeq	r1, r0, lr, lsr #12
 670:	0c01150b 	cfstr32eq	mvfx1, [r1], {11}
 674:	150c0000 	strne	r0, [ip, #-0]
 678:	000015a0 	andeq	r1, r0, r0, lsr #11
 67c:	10a4150d 	adcne	r1, r4, sp, lsl #10
 680:	150e0000 	strne	r0, [lr, #-0]
 684:	00001365 	andeq	r1, r0, r5, ror #6
 688:	0e58150f 	cdpeq	5, 5, cr1, cr8, cr15, {0}
 68c:	15100000 	ldrne	r0, [r0, #-0]
 690:	000005b8 			; <UNDEFINED> instruction: 0x000005b8
 694:	10691511 	rsbne	r1, r9, r1, lsl r5
 698:	15120000 	ldrne	r0, [r2, #-0]
 69c:	000006ae 	andeq	r0, r0, lr, lsr #13
 6a0:	161d1513 			; <UNDEFINED> instruction: 0x161d1513
 6a4:	15140000 	ldrne	r0, [r4, #-0]
 6a8:	000002ae 	andeq	r0, r0, lr, lsr #5
 6ac:	0b421515 	bleq	1085b08 <_start-0x8677a4f8>
 6b0:	15160000 	ldrne	r0, [r6, #-0]
 6b4:	000005eb 	andeq	r0, r0, fp, ror #11
 6b8:	02441517 	subeq	r1, r4, #96468992	; 0x5c00000
 6bc:	15180000 	ldrne	r0, [r8, #-0]
 6c0:	000016b8 			; <UNDEFINED> instruction: 0x000016b8
 6c4:	13d21519 	bicsne	r1, r2, #104857600	; 0x6400000
 6c8:	151a0000 	ldrne	r0, [sl, #-0]
 6cc:	000011cd 	andeq	r1, r0, sp, asr #3
 6d0:	134c151b 	movtne	r1, #50459	; 0xc51b
 6d4:	151c0000 	ldrne	r0, [ip, #-0]
 6d8:	000014d7 	ldrdeq	r1, [r0], -r7
 6dc:	060b151d 			; <UNDEFINED> instruction: 0x060b151d
 6e0:	151e0000 	ldrne	r0, [lr, #-0]
 6e4:	00000356 	andeq	r0, r0, r6, asr r3
 6e8:	0f63151f 	svceq	0x0063151f
 6ec:	15200000 	strne	r0, [r0, #-0]!
 6f0:	00000771 	andeq	r0, r0, r1, ror r7
 6f4:	113f1521 	teqne	pc, r1, lsr #10
 6f8:	15220000 	strne	r0, [r2, #-0]!
 6fc:	00000bd2 	ldrdeq	r0, [r0], -r2
 700:	05fb1523 	ldrbeq	r1, [fp, #1315]!	; 0x523
 704:	15240000 	strne	r0, [r4, #-0]!
 708:	00001304 	andeq	r1, r0, r4, lsl #6
 70c:	04e61525 	strbteq	r1, [r6], #1317	; 0x525
 710:	15260000 	strne	r0, [r6, #-0]!
 714:	000014bb 			; <UNDEFINED> instruction: 0x000014bb
 718:	17061527 	strne	r1, [r6, -r7, lsr #10]
 71c:	15280000 	strne	r0, [r8, #-0]!
 720:	0000103c 	andeq	r1, r0, ip, lsr r0
 724:	09661529 	stmdbeq	r6!, {r0, r3, r5, r8, sl, ip}^
 728:	152a0000 	strne	r0, [sl, #-0]!
 72c:	00001213 	andeq	r1, r0, r3, lsl r2
 730:	0c30152b 	cfldr32eq	mvfx1, [r0], #-172	; 0xffffff54
 734:	152c0000 	strne	r0, [ip, #-0]!
 738:	000003a3 	andeq	r0, r0, r3, lsr #7
 73c:	02f6152d 	rscseq	r1, r6, #188743680	; 0xb400000
 740:	152e0000 	strne	r0, [lr, #-0]!
 744:	0000155e 	andeq	r1, r0, lr, asr r5
 748:	0bbe152f 	bleq	fef85c0c <__bss_end+0x77780fd4>
 74c:	15300000 	ldrne	r0, [r0, #-0]!
 750:	00000688 	andeq	r0, r0, r8, lsl #13
 754:	0b9d1531 	bleq	fe745c20 <__bss_end+0x76f40fe8>
 758:	15320000 	ldrne	r0, [r2, #-0]!
 75c:	00000f78 	andeq	r0, r0, r8, ror pc
 760:	02e41533 	rsceq	r1, r4, #213909504	; 0xcc00000
 764:	15340000 	ldrne	r0, [r4, #-0]!
 768:	000016ed 	andeq	r1, r0, sp, ror #13
 76c:	0c721535 	cfldr64eq	mvdx1, [r2], #-212	; 0xffffff2c
 770:	15360000 	ldrne	r0, [r6, #-0]!
 774:	000008ee 	andeq	r0, r0, lr, ror #17
 778:	0db31537 	cfldr32eq	mvfx1, [r3, #220]!	; 0xdc
 77c:	15380000 	ldrne	r0, [r8, #-0]!
 780:	000015e0 	andeq	r1, r0, r0, ror #11
 784:	047f1539 	ldrbteq	r1, [pc], #-1337	; 78c <_start-0x877ff874>
 788:	153a0000 	ldrne	r0, [sl, #-0]!
 78c:	00000907 	andeq	r0, r0, r7, lsl #18
 790:	08af153b 	stmiaeq	pc!, {r0, r1, r3, r4, r5, r8, sl, ip}	; <UNPREDICTABLE>
 794:	153c0000 	ldrne	r0, [ip, #-0]!
 798:	00000153 	andeq	r0, r0, r3, asr r1
 79c:	0c13153d 	cfldr32eq	mvfx1, [r3], {61}	; 0x3d
 7a0:	153e0000 	ldrne	r0, [lr, #-0]!
 7a4:	000009de 	ldrdeq	r0, [r0], -lr
 7a8:	0374153f 	cmneq	r4, #264241152	; 0xfc00000
 7ac:	15400000 	strbne	r0, [r0, #-0]
 7b0:	00001572 	andeq	r1, r0, r2, ror r5
 7b4:	0b551541 	bleq	1545cc0 <_start-0x862ba340>
 7b8:	15420000 	strbne	r0, [r2, #-0]
 7bc:	0000147c 	andeq	r1, r0, ip, ror r4
 7c0:	01a91543 			; <UNDEFINED> instruction: 0x01a91543
 7c4:	15440000 	strbne	r0, [r4, #-0]
 7c8:	00000ab2 			; <UNDEFINED> instruction: 0x00000ab2
 7cc:	0a9e1545 	beq	fe785ce8 <__bss_end+0x76f810b0>
 7d0:	15460000 	strbne	r0, [r6, #-0]
 7d4:	000011e6 	andeq	r1, r0, r6, ror #3
 7d8:	125b1547 	subsne	r1, fp, #297795584	; 0x11c00000
 7dc:	15480000 	strbne	r0, [r8, #-0]
 7e0:	0000153d 	andeq	r1, r0, sp, lsr r5
 7e4:	07c21549 	strbeq	r1, [r2, r9, asr #10]
 7e8:	154a0000 	strbne	r0, [sl, #-0]
 7ec:	00000f19 	andeq	r0, r0, r9, lsl pc
 7f0:	1228154b 	eorne	r1, r8, #314572800	; 0x12c00000
 7f4:	154c0000 	strbne	r0, [ip, #-0]
 7f8:	00001194 	muleq	r0, r4, r1
 7fc:	10d3154d 	sbcsne	r1, r3, sp, asr #10
 800:	154e0000 	strbne	r0, [lr, #-0]
 804:	000010e7 	andeq	r1, r0, r7, ror #1
 808:	0506154f 	streq	r1, [r6, #-1359]	; 0xfffffab1
 80c:	15500000 	ldrbne	r0, [r0, #-0]
 810:	00000462 	andeq	r0, r0, r2, ror #8
 814:	04921551 	ldreq	r1, [r2], #1361	; 0x551
 818:	15520000 	ldrbne	r0, [r2, #-0]
 81c:	00001377 	andeq	r1, r0, r7, ror r3
 820:	04d11553 	ldrbeq	r1, [r1], #1363	; 0x553
 824:	15540000 	ldrbne	r0, [r4, #-0]
 828:	0000055c 	andeq	r0, r0, ip, asr r5
 82c:	138b1555 	orrne	r1, fp, #356515840	; 0x15400000
 830:	15560000 	ldrbne	r0, [r6, #-0]
 834:	0000139f 	muleq	r0, pc, r3	; <UNPREDICTABLE>
 838:	069a1557 			; <UNDEFINED> instruction: 0x069a1557
 83c:	15580000 	ldrbne	r0, [r8, #-0]
 840:	00000674 	andeq	r0, r0, r4, ror r6
 844:	0ac61559 	beq	ff185db0 <__bss_end+0x77981178>
 848:	155a0000 	ldrbne	r0, [sl, #-0]
 84c:	00000dc6 	andeq	r0, r0, r6, asr #27
 850:	0a3f155b 	beq	fc5dc4 <_start-0x8683a23c>
 854:	155c0000 	ldrbne	r0, [ip, #-0]
 858:	00000754 	andeq	r0, r0, r4, asr r7
 85c:	084e155d 	stmdaeq	lr, {r0, r2, r3, r4, r6, r8, sl, ip}^
 860:	155e0000 	ldrbne	r0, [lr, #-0]
 864:	00000def 	andeq	r0, r0, pc, ror #27
 868:	0b18155f 	bleq	605dec <_start-0x871fa214>
 86c:	15600000 	strbne	r0, [r0, #-0]!
 870:	00001152 	andeq	r1, r0, r2, asr r1
 874:	166a1561 	strbtne	r1, [sl], -r1, ror #10
 878:	15620000 	strbne	r0, [r2, #-0]!
 87c:	00000f04 	andeq	r0, r0, r4, lsl #30
 880:	07e71563 	strbeq	r1, [r7, r3, ror #10]!
 884:	15640000 	strbne	r0, [r4, #-0]!
 888:	00000256 	andeq	r0, r0, r6, asr r2
 88c:	01fb1565 	mvnseq	r1, r5, ror #10
 890:	15660000 	strbne	r0, [r6, #-0]!
 894:	00000e17 	andeq	r0, r0, r7, lsl lr
 898:	0fbc1567 	svceq	0x00bc1567
 89c:	15680000 	strbne	r0, [r8, #-0]!
 8a0:	00001176 	andeq	r1, r0, r6, ror r1
 8a4:	0b2d1569 	bleq	b45e50 <_start-0x86cba1b0>
 8a8:	156a0000 	strbne	r0, [sl, #-0]!
 8ac:	000016a3 	andeq	r1, r0, r3, lsr #13
 8b0:	08c5156b 	stmiaeq	r5, {r0, r1, r3, r5, r6, r8, sl, ip}^
 8b4:	156c0000 	strbne	r0, [ip, #-0]!
 8b8:	00000178 	andeq	r0, r0, r8, ror r1
 8bc:	0318156d 	tsteq	r8, #457179136	; 0x1b400000
 8c0:	156e0000 	strbne	r0, [lr, #-0]!
 8c4:	000007fb 	strdeq	r0, [r0], -fp
 8c8:	0629156f 	strteq	r1, [r9], -pc, ror #10
 8cc:	00700000 	rsbseq	r0, r0, r0
 8d0:	0003e313 	andeq	lr, r3, r3, lsl r3
 8d4:	01440f00 	cmpeq	r4, r0, lsl #30
 8d8:	0002ea1a 	andeq	lr, r2, sl, lsl sl
 8dc:	08851300 	stmeq	r5, {r8, r9, ip}
 8e0:	790f0000 	stmdbvc	pc, {}	; <UNPREDICTABLE>
 8e4:	02ea1a01 	rsceq	r1, sl, #4096	; 0x1000
 8e8:	aa0c0000 	bge	3008f0 <_start-0x874ff710>
 8ec:	5d000000 	stcpl	0, cr0, [r0, #-0]
 8f0:	0f000008 	svceq	0x00000008
 8f4:	0aea0e00 	beq	ffa840fc <__bss_end+0x7827f4c4>
 8f8:	2d100000 	ldccs	0, cr0, [r0, #-0]
 8fc:	0008520d 	andeq	r5, r8, sp, lsl #4
 900:	14920e00 	ldrne	r0, [r2], #3584	; 0xe00
 904:	35100000 	ldrcc	r0, [r0, #-0]
 908:	00057f1c 	andeq	r7, r5, ip, lsl pc
 90c:	07181400 	ldreq	r1, [r8, -r0, lsl #8]
 910:	04070000 	streq	r0, [r7], #-0
 914:	0000003f 	andeq	r0, r0, pc, lsr r0
 918:	e80e3710 	stmda	lr, {r4, r8, r9, sl, ip, sp}
 91c:	15000008 	strne	r0, [r0, #-8]
 920:	00000197 	muleq	r0, r7, r1
 924:	09cb1500 	stmibeq	fp, {r8, sl, ip}^
 928:	15010000 	strne	r0, [r1, #-0]
 92c:	000015f2 	strdeq	r1, [r0], -r2
 930:	15b31502 	ldrne	r1, [r3, #1282]!	; 0x502
 934:	15030000 	strne	r0, [r3, #-0]
 938:	00000e9a 	muleq	r0, sl, lr
 93c:	12c11504 	sbcne	r1, r1, #4, 10	; 0x1000000
 940:	15050000 	strne	r0, [r5, #-0]
 944:	00000426 	andeq	r0, r0, r6, lsr #8
 948:	04081506 	streq	r1, [r8], #-1286	; 0xfffffafa
 94c:	15070000 	strne	r0, [r7, #-0]
 950:	00000591 	muleq	r0, r1, r5
 954:	0c291508 	cfstr32eq	mvfx1, [r9], #-32	; 0xffffffe0
 958:	15090000 	strne	r0, [r9, #-0]
 95c:	0000042d 	andeq	r0, r0, sp, lsr #8
 960:	04ae150a 	strteq	r1, [lr], #1290	; 0x50a
 964:	150b0000 	strne	r0, [fp, #-0]
 968:	000004a7 	andeq	r0, r0, r7, lsr #9
 96c:	041f150c 	ldreq	r1, [pc], #-1292	; 974 <_start-0x877ff68c>
 970:	150d0000 	strne	r0, [sp, #-0]
 974:	00001318 	andeq	r1, r0, r8, lsl r3
 978:	0fe1150e 	svceq	0x00e1150e
 97c:	000f0000 	andeq	r0, pc, r0
 980:	0011a804 	andseq	sl, r1, r4, lsl #16
 984:	013c1000 	teqeq	ip, r0
 988:	00000875 	andeq	r0, r0, r5, ror r8
 98c:	00128a0e 	andseq	r8, r2, lr, lsl #20
 990:	0f3e1000 	svceq	0x003e1000
 994:	000008e8 	andeq	r0, r0, r8, ror #17
 998:	00133b0e 	andseq	r3, r3, lr, lsl #22
 99c:	0c471000 	mareq	acc0, r1, r7
 9a0:	0000002c 	andeq	r0, r0, ip, lsr #32
 9a4:	0003c30e 	andeq	ip, r3, lr, lsl #6
 9a8:	0c481000 	mareq	acc0, r1, r8
 9ac:	0000002c 	andeq	r0, r0, ip, lsr #32
 9b0:	0014680b 	andseq	r6, r4, fp, lsl #16
 9b4:	12990e00 	addsne	r0, r9, #0, 28
 9b8:	49100000 	ldmdbmi	r0, {}	; <UNPREDICTABLE>
 9bc:	00092914 	andeq	r2, r9, r4, lsl r9
 9c0:	18040600 	stmdane	r4, {r9, sl}
 9c4:	16000009 	strne	r0, [r0], -r9
 9c8:	0009950e 	andeq	r9, r9, lr, lsl #10
 9cc:	0f4b1000 	svceq	0x004b1000
 9d0:	0000093c 	andeq	r0, r0, ip, lsr r9
 9d4:	092f0406 	stmdbeq	pc!, {r1, r2, sl}	; <UNPREDICTABLE>
 9d8:	fe170000 	cdp2	0, 1, cr0, cr7, cr0, {0}
 9dc:	0e000011 	mcreq	0, 0, r0, cr0, cr1, {0}
 9e0:	00000e87 	andeq	r0, r0, r7, lsl #29
 9e4:	530d4f10 	movwpl	r4, #57104	; 0xdf10
 9e8:	06000009 	streq	r0, [r0], -r9
 9ec:	00094204 	andeq	r4, r9, r4, lsl #4
 9f0:	054f1800 	strbeq	r1, [pc, #-2048]	; 1f8 <_start-0x877ffe08>
 9f4:	10bc0000 	adcsne	r0, ip, r0
 9f8:	84150158 	ldrhi	r0, [r5], #-344	; 0xfffffea8
 9fc:	19000009 	stmdbne	r0, {r0, r3}
 a00:	00000af3 	strdeq	r0, [r0], -r3
 a04:	0f015a10 	svceq	0x00015a10
 a08:	0000029e 	muleq	r0, lr, r2
 a0c:	05331900 	ldreq	r1, [r3, #-2304]!	; 0xfffff700
 a10:	5b100000 	blpl	400a18 <_start-0x873ff5e8>
 a14:	09891401 	stmibeq	r9, {r0, sl, ip}
 a18:	00040000 	andeq	r0, r4, r0
 a1c:	00095907 	andeq	r5, r9, r7, lsl #18
 a20:	04520c00 	ldrbeq	r0, [r2], #-3072	; 0xfffff400
 a24:	09990000 	ldmibeq	r9, {}	; <UNPREDICTABLE>
 a28:	3f0d0000 	svccc	0x000d0000
 a2c:	2d000000 	stccs	0, cr0, [r0, #-0]
 a30:	09840c00 	stmibeq	r4, {sl, fp}
 a34:	09a40000 	stmibeq	r4!, {}	; <UNPREDICTABLE>
 a38:	000f0000 	andeq	r0, pc, r0
 a3c:	00099907 	andeq	r9, r9, r7, lsl #18
 a40:	0a1d1300 	beq	745648 <_start-0x870ba9b8>
 a44:	5c100000 	ldcpl	0, cr0, [r0], {-0}
 a48:	09a40301 	stmibeq	r4!, {r0, r8, r9}
 a4c:	96130000 	ldrls	r0, [r3], -r0
 a50:	1000000d 	andne	r0, r0, sp
 a54:	2c0c015f 	stfcss	f0, [ip], {95}	; 0x5f
 a58:	1a000000 	bne	a60 <_start-0x877ff5a0>
 a5c:	0000123c 	andeq	r1, r0, ip, lsr r2
 a60:	003f0407 	eorseq	r0, pc, r7, lsl #8
 a64:	72100000 	andsvc	r0, r0, #0, 0
 a68:	0a790601 	beq	1e42274 <_start-0x859bdd8c>
 a6c:	7b150000 	blvc	540a74 <_start-0x872bf58c>
 a70:	0000000e 	andeq	r0, r0, lr
 a74:	00029615 	andeq	r9, r2, r5, lsl r6
 a78:	a2150200 	andsge	r0, r5, #0, 4
 a7c:	03000002 	movweq	r0, #2
 a80:	00061c15 	andeq	r1, r6, r5, lsl ip
 a84:	b7150300 	ldrlt	r0, [r5, -r0, lsl #6]
 a88:	0400000e 	streq	r0, [r0], #-14
 a8c:	00091c15 	andeq	r1, r9, r5, lsl ip
 a90:	c0150400 	andsgt	r0, r5, r0, lsl #8
 a94:	05000002 	streq	r0, [r0, #-2]
 a98:	0009f415 	andeq	pc, r9, r5, lsl r4	; <UNPREDICTABLE>
 a9c:	a2150500 	andsge	r0, r5, #0, 10
 aa0:	0500000f 	streq	r0, [r0, #-15]
 aa4:	00094d15 	andeq	r4, r9, r5, lsl sp
 aa8:	b4150500 	ldrlt	r0, [r5], #-1280	; 0xfffffb00
 aac:	05000003 	streq	r0, [r0, #-3]
 ab0:	0002cc15 	andeq	ip, r2, r5, lsl ip
 ab4:	b1150600 	tstlt	r5, r0, lsl #12
 ab8:	0600000b 	streq	r0, [r0], -fp
 abc:	00052515 	andeq	r2, r5, r5, lsl r5
 ac0:	2f150600 	svccs	0x00150600
 ac4:	06000010 			; <UNDEFINED> instruction: 0x06000010
 ac8:	0012e415 	andseq	lr, r2, r5, lsl r4
 acc:	e5150600 	ldr	r0, [r5, #-1536]	; 0xfffffa00
 ad0:	0600000b 	streq	r0, [r0], -fp
 ad4:	000c5315 	andeq	r5, ip, r5, lsl r3
 ad8:	d8150600 	ldmdale	r5, {r9, sl}
 adc:	07000002 	streq	r0, [r0, -r2]
 ae0:	000e4b15 	andeq	r4, lr, r5, lsl fp
 ae4:	c3150700 	tstgt	r5, #0, 14
 ae8:	0700000e 	streq	r0, [r0, -lr]
 aec:	00132e15 	andseq	r2, r3, r5, lsl lr
 af0:	f8150700 			; <UNDEFINED> instruction: 0xf8150700
 af4:	07000004 	streq	r0, [r0, -r4]
 af8:	000f5615 	andeq	r5, pc, r5, lsl r6	; <UNPREDICTABLE>
 afc:	32150800 	andscc	r0, r5, #0, 16
 b00:	08000002 	stmdaeq	r0, {r1}
 b04:	0012f215 	andseq	pc, r2, r5, lsl r2	; <UNPREDICTABLE>
 b08:	af150800 	svcge	0x00150800
 b0c:	0800000f 	stmdaeq	r0, {r0, r1, r2, r3}
 b10:	160f1300 	strne	r1, [pc], -r0, lsl #6
 b14:	92100000 	andsls	r0, r0, #0, 0
 b18:	09c31f01 	stmibeq	r3, {r0, r8, r9, sl, fp, ip}^
 b1c:	e3130000 	tst	r3, #0, 0
 b20:	10000008 	andne	r0, r0, r8
 b24:	2c0c0195 	stfcss	f0, [ip], {149}	; 0x95
 b28:	13000000 	movwne	r0, #0
 b2c:	00000fe8 	andeq	r0, r0, r8, ror #31
 b30:	0c019810 	stceq	8, cr9, [r1], {16}
 b34:	0000002c 	andeq	r0, r0, ip, lsr #32
 b38:	000a3413 	andeq	r3, sl, r3, lsl r4
 b3c:	019b1000 	orrseq	r1, fp, r0
 b40:	00002c0c 	andeq	r2, r0, ip, lsl #24
 b44:	0ff21300 	svceq	0x00f21300
 b48:	9e100000 	cdpls	0, 1, cr0, cr0, cr0, {0}
 b4c:	002c0c01 	eoreq	r0, ip, r1, lsl #24
 b50:	92130000 	andsls	r0, r3, #0, 0
 b54:	1000000b 	andne	r0, r0, fp
 b58:	2c0c01a1 	stfcss	f0, [ip], {161}	; 0xa1
 b5c:	13000000 	movwne	r0, #0
 b60:	0000104f 	andeq	r1, r0, pc, asr #32
 b64:	0c01a410 	cfstrseq	mvf10, [r1], {16}
 b68:	0000002c 	andeq	r0, r0, ip, lsr #32
 b6c:	000ea113 	andeq	sl, lr, r3, lsl r1
 b70:	01a71000 			; <UNDEFINED> instruction: 0x01a71000
 b74:	00002c0c 	andeq	r2, r0, ip, lsl #24
 b78:	0eac1300 	cdpeq	3, 10, cr1, cr12, cr0, {0}
 b7c:	aa100000 	bge	400b84 <_start-0x873ff47c>
 b80:	002c0c01 	eoreq	r0, ip, r1, lsl #24
 b84:	0f130000 	svceq	0x00130000
 b88:	10000010 	andne	r0, r0, r0, lsl r0
 b8c:	2c0c01ad 	stfcss	f0, [ip], {173}	; 0xad
 b90:	13000000 	movwne	r0, #0
 b94:	00000b84 	andeq	r0, r0, r4, lsl #23
 b98:	0c01b010 	stceq	0, cr11, [r1], {16}
 b9c:	0000002c 	andeq	r0, r0, ip, lsr #32
 ba0:	00165e13 	andseq	r5, r6, r3, lsl lr
 ba4:	01b31000 			; <UNDEFINED> instruction: 0x01b31000
 ba8:	00002c0c 	andeq	r2, r0, ip, lsl #24
 bac:	10191300 	andsne	r1, r9, r0, lsl #6
 bb0:	b6100000 	ldrlt	r0, [r0], -r0
 bb4:	002c0c01 	eoreq	r0, ip, r1, lsl #24
 bb8:	60130000 	andsvs	r0, r3, r0
 bbc:	10000017 	andne	r0, r0, r7, lsl r0
 bc0:	2c0c01b9 	stfcss	f0, [ip], {185}	; 0xb9
 bc4:	13000000 	movwne	r0, #0
 bc8:	000015ba 			; <UNDEFINED> instruction: 0x000015ba
 bcc:	0c01bc10 	stceq	12, cr11, [r1], {16}
 bd0:	0000002c 	andeq	r0, r0, ip, lsr #32
 bd4:	0015f913 	andseq	pc, r5, r3, lsl r9	; <UNPREDICTABLE>
 bd8:	01c01000 	biceq	r1, r0, r0
 bdc:	00002c0c 	andeq	r2, r0, ip, lsl #24
 be0:	15d31300 	ldrbne	r1, [r3, #768]	; 0x300
 be4:	c3100000 	tstgt	r0, #0, 0
 be8:	002c0c01 	eoreq	r0, ip, r1, lsl #24
 bec:	34130000 	ldrcc	r0, [r3], #-0
 bf0:	10000004 	andne	r0, r0, r4
 bf4:	2c0c01c6 	stfcss	f0, [ip], {198}	; 0xc6
 bf8:	13000000 	movwne	r0, #0
 bfc:	00000168 	andeq	r0, r0, r8, ror #2
 c00:	0c01c910 			; <UNDEFINED> instruction: 0x0c01c910
 c04:	0000002c 	andeq	r0, r0, ip, lsr #32
 c08:	00079c13 	andeq	r9, r7, r3, lsl ip
 c0c:	01cc1000 	biceq	r1, ip, r0
 c10:	00002c0c 	andeq	r2, r0, ip, lsl #24
 c14:	040f1300 	streq	r1, [pc], #-768	; c1c <_start-0x877ff3e4>
 c18:	cf100000 	svcgt	0x00100000
 c1c:	002c0c01 	eoreq	r0, ip, r1, lsl #24
 c20:	59130000 	ldmdbpl	r3, {}	; <UNPREDICTABLE>
 c24:	10000010 	andne	r0, r0, r0, lsl r0
 c28:	2c0c01d2 	stfcss	f0, [ip], {210}	; 0xd2
 c2c:	13000000 	movwne	r0, #0
 c30:	00000a5c 	andeq	r0, r0, ip, asr sl
 c34:	0c01d510 	cfstr32eq	mvfx13, [r1], {16}
 c38:	0000002c 	andeq	r0, r0, ip, lsr #32
 c3c:	000e0413 	andeq	r0, lr, r3, lsl r4
 c40:	01d81000 	bicseq	r1, r8, r0
 c44:	00002c0c 	andeq	r2, r0, ip, lsl #24
 c48:	149b1300 	ldrne	r1, [fp], #768	; 0x300
 c4c:	df100000 	svcle	0x00100000
 c50:	002c0c01 	eoreq	r0, ip, r1, lsl #24
 c54:	cd130000 	ldcgt	0, cr0, [r3, #-0]
 c58:	10000016 	andne	r0, r0, r6, lsl r0
 c5c:	2c0c01e2 	stfcss	f0, [ip], {226}	; 0xe2
 c60:	13000000 	movwne	r0, #0
 c64:	000016dd 	ldrdeq	r1, [r0], -sp
 c68:	0c01e510 	cfstr32eq	mvfx14, [r1], {16}
 c6c:	0000002c 	andeq	r0, r0, ip, lsr #32
 c70:	00053c13 	andeq	r3, r5, r3, lsl ip
 c74:	01e81000 	mvneq	r1, r0
 c78:	00002c0c 	andeq	r2, r0, ip, lsl #24
 c7c:	14e81300 	strbtne	r1, [r8], #768	; 0x300
 c80:	eb100000 	bl	400c88 <_start-0x873ff378>
 c84:	002c0c01 	eoreq	r0, ip, r1, lsl #24
 c88:	3e130000 	cdpcc	0, 1, cr0, cr3, cr0, {0}
 c8c:	1000000f 	andne	r0, r0, pc
 c90:	2c0c01ee 	stfcss	f0, [ip], {238}	; 0xee
 c94:	13000000 	movwne	r0, #0
 c98:	00000827 	andeq	r0, r0, r7, lsr #16
 c9c:	0c01f210 	sfmeq	f7, 1, [r1], {16}
 ca0:	0000002c 	andeq	r0, r0, ip, lsr #32
 ca4:	00124e13 	andseq	r4, r2, r3, lsl lr
 ca8:	01fa1000 	mvnseq	r1, r0
 cac:	00002c0c 	andeq	r2, r0, ip, lsl #24
 cb0:	06541300 	ldrbeq	r1, [r4], -r0, lsl #6
 cb4:	fd100000 	ldc2	0, cr0, [r0, #-0]
 cb8:	002c0c01 	eoreq	r0, ip, r1, lsl #24
 cbc:	2c0c0000 	stccs	0, cr0, [ip], {-0}
 cc0:	31000000 	mrscc	r0, (UNDEF: 0)
 cc4:	0f00000c 	svceq	0x0000000c
 cc8:	09381300 	ldmdbeq	r8!, {r8, r9, ip}
 ccc:	eb100000 	bl	400cd4 <_start-0x873ff32c>
 cd0:	0c260c03 	stceq	12, cr0, [r6], #-12
 cd4:	290c0000 	stmdbcs	ip, {}	; <UNPREDICTABLE>
 cd8:	4e000009 	cdpmi	0, 0, cr0, cr0, cr9, {0}
 cdc:	0d00000c 	stceq	0, cr0, [r0, #-48]	; 0xffffffd0
 ce0:	0000003f 	andeq	r0, r0, pc, lsr r0
 ce4:	8f13000d 	svchi	0x0013000d
 ce8:	10000010 	andne	r0, r0, r0, lsl r0
 cec:	3e140574 	mrccc	5, 0, r0, cr4, cr4, {3}
 cf0:	1a00000c 	bne	d28 <_start-0x877ff2d8>
 cf4:	00000a26 	andeq	r0, r0, r6, lsr #20
 cf8:	003f0407 	eorseq	r0, pc, r7, lsl #8
 cfc:	7b100000 	blvc	400d04 <_start-0x873ff2fc>
 d00:	0c990605 	ldceq	6, cr0, [r9], {5}
 d04:	26150000 	ldrcs	r0, [r5], -r0
 d08:	00000007 	andeq	r0, r0, r7
 d0c:	000c6015 	andeq	r6, ip, r5, lsl r0
 d10:	68150100 	ldmdavs	r5, {r8}
 d14:	02000002 	andeq	r0, r0, #2, 0
 d18:	00168f15 	andseq	r8, r6, r5, lsl pc
 d1c:	15150300 	ldrne	r0, [r5, #-768]	; 0xfffffd00
 d20:	04000011 	streq	r0, [r0], #-17	; 0xffffffef
 d24:	00110815 	andseq	r0, r1, r5, lsl r8
 d28:	8b150500 	blhi	542130 <_start-0x872bded0>
 d2c:	06000003 	streq	r0, [r0], -r3
 d30:	167f1300 	ldrbtne	r1, [pc], -r0, lsl #6
 d34:	88100000 	ldmdahi	r0, {}	; <UNPREDICTABLE>
 d38:	0c5b1505 	cfldr64eq	mvdx1, [fp], {5}
 d3c:	2c130000 	ldccs	0, cr0, [r3], {-0}
 d40:	10000015 	andne	r0, r0, r5, lsl r0
 d44:	3f11078a 	svccc	0x0011078a
 d48:	13000000 	movwne	r0, #0
 d4c:	0000107c 	andeq	r1, r0, ip, ror r0
 d50:	0c079f10 	stceq	15, cr9, [r7], {16}
 d54:	0000002c 	andeq	r0, r0, ip, lsr #32
 d58:	00047704 	andeq	r7, r4, r4, lsl #14
 d5c:	167b1100 	ldrbtne	r1, [fp], -r0, lsl #2
 d60:	00000056 	andeq	r0, r0, r6, asr r0
 d64:	000cc007 	andeq	ip, ip, r7
 d68:	03470400 	movteq	r0, #29696	; 0x7400
 d6c:	81110000 	tsthi	r1, r0
 d70:	00003f16 	andeq	r3, r0, r6, lsl pc
 d74:	01f30400 	mvnseq	r0, r0, lsl #8
 d78:	85110000 	ldrhi	r0, [r1, #-0]
 d7c:	00002516 	andeq	r2, r0, r6, lsl r5
 d80:	04040200 	streq	r0, [r4], #-512	; 0xfffffe00
 d84:	0000044f 	andeq	r0, r0, pc, asr #8
 d88:	47030802 	strmi	r0, [r3, -r2, lsl #16]
 d8c:	02000004 	andeq	r0, r0, #4, 0
 d90:	10280408 	eorne	r0, r8, r8, lsl #8
 d94:	10020000 	andne	r0, r2, r0
 d98:	00116703 	andseq	r6, r1, r3, lsl #14
 d9c:	0ccc0c00 	stcleq	12, cr0, [ip], {0}
 da0:	0d150000 	ldceq	0, cr0, [r5, #-0]
 da4:	3f0d0000 	svccc	0x000d0000
 da8:	ff000000 			; <UNDEFINED> instruction: 0xff000000
 dac:	0d050700 	stceq	7, cr0, [r5, #-0]
 db0:	d0130000 	andsle	r0, r3, r0
 db4:	1100000e 	tstne	r0, lr
 db8:	151601fc 	ldrne	r0, [r6, #-508]	; 0xfffffe04
 dbc:	1300000d 	movwne	r0, #13
 dc0:	000003fe 	strdeq	r0, [r0], -lr
 dc4:	16020211 			; <UNDEFINED> instruction: 0x16020211
 dc8:	00000d15 	andeq	r0, r0, r5, lsl sp
 dcc:	0002251b 	andeq	r2, r2, fp, lsl r5
 dd0:	03b30100 			; <UNDEFINED> instruction: 0x03b30100
 dd4:	000cdd01 	andeq	sp, ip, r1, lsl #26
 dd8:	803c0400 	eorshi	r0, ip, r0, lsl #8
 ddc:	00014887 	andeq	r4, r1, r7, lsl #17
 de0:	0e9c0100 	fmleqe	f0, f4, f0
 de4:	1c00000e 	stcne	0, cr0, [r0], {14}
 de8:	b301006e 	movwlt	r0, #4206	; 0x106e
 dec:	0cdd1703 	ldcleq	7, cr1, [sp], {3}
 df0:	00060000 	andeq	r0, r6, r0
 df4:	00000000 	andeq	r0, r0, r0
 df8:	641c0000 	ldrvs	r0, [ip], #-0
 dfc:	03b30100 			; <UNDEFINED> instruction: 0x03b30100
 e00:	000cdd22 	andeq	sp, ip, r2, lsr #26
 e04:	00004400 	andeq	r4, r0, r0, lsl #8
 e08:	00003e00 	andeq	r3, r0, r0, lsl #28
 e0c:	70721d00 	rsbsvc	r1, r2, r0, lsl #26
 e10:	03b30100 			; <UNDEFINED> instruction: 0x03b30100
 e14:	000e0e2e 	andeq	r0, lr, lr, lsr #28
 e18:	00910200 	addseq	r0, r1, r0, lsl #4
 e1c:	0100711e 	tsteq	r0, lr, lsl r1
 e20:	dd0b03b5 	stcle	3, cr0, [fp, #-724]	; 0xfffffd2c
 e24:	8600000c 	strhi	r0, [r0], -ip
 e28:	7c000000 	stcvc	0, cr0, [r0], {-0}
 e2c:	1e000000 	cdpne	0, 0, cr0, cr0, cr0, {0}
 e30:	b5010072 	strlt	r0, [r1, #-114]	; 0xffffff8e
 e34:	0cdd1203 	lfmeq	f1, 2, [sp], {3}
 e38:	00f20000 	rscseq	r0, r2, r0
 e3c:	00e80000 	rsceq	r0, r8, r0
 e40:	791e0000 	ldmdbvc	lr, {}	; <UNPREDICTABLE>
 e44:	03b50100 			; <UNDEFINED> instruction: 0x03b50100
 e48:	000cdd19 	andeq	sp, ip, r9, lsl sp
 e4c:	00014f00 	andeq	r4, r1, r0, lsl #30
 e50:	00014900 	andeq	r4, r1, r0, lsl #18
 e54:	7a6c1e00 	bvc	1b0865c <_start-0x85cf79a4>
 e58:	b6010031 			; <UNDEFINED> instruction: 0xb6010031
 e5c:	0cd10a03 	vldmiaeq	r1, {s1-s3}
 e60:	01890000 	orreq	r0, r9, r0
 e64:	01870000 	orreq	r0, r7, r0
 e68:	6c1e0000 	ldcvs	0, cr0, [lr], {-0}
 e6c:	0100327a 	tsteq	r0, sl, ror r2
 e70:	d10f03b6 			; <UNDEFINED> instruction: 0xd10f03b6
 e74:	a000000c 	andge	r0, r0, ip
 e78:	9e000001 	cdpls	0, 0, cr0, cr0, cr1, {0}
 e7c:	1e000001 	cdpne	0, 0, cr0, cr0, cr1, {0}
 e80:	b6010069 	strlt	r0, [r1], -r9, rrx
 e84:	0cd11403 	cfldrdeq	mvd1, [r1], {3}
 e88:	01bb0000 			; <UNDEFINED> instruction: 0x01bb0000
 e8c:	01b30000 			; <UNDEFINED> instruction: 0x01b30000
 e90:	6b1e0000 	blvs	780e98 <_start-0x8707f168>
 e94:	03b60100 			; <UNDEFINED> instruction: 0x03b60100
 e98:	000cd117 	andeq	sp, ip, r7, lsl r1
 e9c:	0001f500 	andeq	pc, r1, r0, lsl #10
 ea0:	0001f100 	andeq	pc, r1, r0, lsl #2
 ea4:	04060000 	streq	r0, [r6], #-0
 ea8:	00000cdd 	ldrdeq	r0, [r0], -sp
	...

Disassembly of section .debug_abbrev:

00000000 <.debug_abbrev>:
   0:	10001101 	andne	r1, r0, r1, lsl #2
   4:	12011106 	andne	r1, r1, #-2147483647	; 0x80000001
   8:	1b0e0301 	blne	380c14 <_start-0x8747f3ec>
   c:	130e250e 	movwne	r2, #58638	; 0xe50e
  10:	00000005 	andeq	r0, r0, r5
  14:	10001101 	andne	r1, r0, r1, lsl #2
  18:	12011106 	andne	r1, r1, #-2147483647	; 0x80000001
  1c:	1b0e0301 	blne	380c28 <_start-0x8747f3d8>
  20:	130e250e 	movwne	r2, #58638	; 0xe50e
  24:	00000005 	andeq	r0, r0, r5
  28:	10001101 	andne	r1, r0, r1, lsl #2
  2c:	12011106 	andne	r1, r1, #-2147483647	; 0x80000001
  30:	1b0e0301 	blne	380c3c <_start-0x8747f3c4>
  34:	130e250e 	movwne	r2, #58638	; 0xe50e
  38:	00000005 	andeq	r0, r0, r5
  3c:	10001101 	andne	r1, r0, r1, lsl #2
  40:	12011106 	andne	r1, r1, #-2147483647	; 0x80000001
  44:	1b0e0301 	blne	380c50 <_start-0x8747f3b0>
  48:	130e250e 	movwne	r2, #58638	; 0xe50e
  4c:	00000005 	andeq	r0, r0, r5
  50:	25011101 	strcs	r1, [r1, #-257]	; 0xfffffeff
  54:	030b130e 	movweq	r1, #45838	; 0xb30e
  58:	110e1b0e 	tstne	lr, lr, lsl #22
  5c:	10061201 	andne	r1, r6, r1, lsl #4
  60:	02000017 	andeq	r0, r0, #23, 0
  64:	0b0b0024 	bleq	2c00fc <_start-0x8753ff04>
  68:	0e030b3e 	vmoveq.16	d3[0], r0
  6c:	24030000 	strcs	r0, [r3], #-0
  70:	3e0b0b00 	vmlacc.f64	d0, d11, d0
  74:	0008030b 	andeq	r0, r8, fp, lsl #6
  78:	00160400 	andseq	r0, r6, r0, lsl #8
  7c:	0b3a0e03 	bleq	e83890 <_start-0x8697c770>
  80:	0b390b3b 	bleq	e42d74 <_start-0x869bd28c>
  84:	00001349 	andeq	r1, r0, r9, asr #6
  88:	0b000f05 	bleq	3ca4 <_start-0x877fc35c>
  8c:	0600000b 	streq	r0, [r0], -fp
  90:	0b0b000f 	bleq	2c00d4 <_start-0x8753ff2c>
  94:	00001349 	andeq	r1, r0, r9, asr #6
  98:	49002607 	stmdbmi	r0, {r0, r1, r2, r9, sl, sp}
  9c:	08000013 	stmdaeq	r0, {r0, r1, r4}
  a0:	0e030113 	mcreq	1, 0, r0, cr3, cr3, {0}
  a4:	0b3a0b0b 	bleq	e82cd8 <_start-0x8697d328>
  a8:	0b390b3b 	bleq	e42d9c <_start-0x869bd264>
  ac:	00001301 	andeq	r1, r0, r1, lsl #6
  b0:	03000d09 	movweq	r0, #3337	; 0xd09
  b4:	3b0b3a0e 	blcc	2ce8f4 <_start-0x8753170c>
  b8:	490b390b 	stmdbmi	fp, {r0, r1, r3, r8, fp, ip, sp}
  bc:	000b3813 	andeq	r3, fp, r3, lsl r8
  c0:	00160a00 	andseq	r0, r6, r0, lsl #20
  c4:	0b3a0e03 	bleq	e838d8 <_start-0x8697c728>
  c8:	0b390b3b 	bleq	e42dbc <_start-0x869bd244>
  cc:	130b0000 	movwne	r0, #45056	; 0xb000
  d0:	3c0e0300 	stccc	3, cr0, [lr], {-0}
  d4:	0c000019 	stceq	0, cr0, [r0], {25}
  d8:	13490101 	movtne	r0, #37121	; 0x9101
  dc:	00001301 	andeq	r1, r0, r1, lsl #6
  e0:	4900210d 	stmdbmi	r0, {r0, r2, r3, r8, sp}
  e4:	000b2f13 	andeq	r2, fp, r3, lsl pc
  e8:	00340e00 	eorseq	r0, r4, r0, lsl #28
  ec:	0b3a0e03 	bleq	e83900 <_start-0x8697c700>
  f0:	0b390b3b 	bleq	e42de4 <_start-0x869bd21c>
  f4:	193f1349 	ldmdbne	pc!, {r0, r3, r6, r8, r9, ip}	; <UNPREDICTABLE>
  f8:	0000193c 	andeq	r1, r0, ip, lsr r9
  fc:	0000210f 	andeq	r2, r0, pc, lsl #2
 100:	01151000 	tsteq	r5, r0
 104:	13491927 	movtne	r1, #39207	; 0x9927
 108:	00001301 	andeq	r1, r0, r1, lsl #6
 10c:	49000511 	stmdbmi	r0, {r0, r4, r8, sl}
 110:	12000013 	andne	r0, r0, #19, 0
 114:	00000026 	andeq	r0, r0, r6, lsr #32
 118:	03003413 	movweq	r3, #1043	; 0x413
 11c:	3b0b3a0e 	blcc	2ce95c <_start-0x875316a4>
 120:	490b3905 	stmdbmi	fp, {r0, r2, r8, fp, ip, sp}
 124:	3c193f13 	ldccc	15, cr3, [r9], {19}
 128:	14000019 	strne	r0, [r0], #-25	; 0xffffffe7
 12c:	0e030104 	adfeqs	f0, f3, f4
 130:	0b0b0b3e 	bleq	2c2e30 <_start-0x8753d1d0>
 134:	0b3a1349 	bleq	e84e60 <_start-0x8697b1a0>
 138:	0b390b3b 	bleq	e42e2c <_start-0x869bd1d4>
 13c:	00001301 	andeq	r1, r0, r1, lsl #6
 140:	03002815 	movweq	r2, #2069	; 0x815
 144:	000b1c0e 	andeq	r1, fp, lr, lsl #24
 148:	00151600 	andseq	r1, r5, r0, lsl #12
 14c:	00001927 	andeq	r1, r0, r7, lsr #18
 150:	03001717 	movweq	r1, #1815	; 0x717
 154:	00193c0e 	andseq	r3, r9, lr, lsl #24
 158:	01131800 	tsteq	r3, r0, lsl #16
 15c:	0b0b0e03 	bleq	2c3970 <_start-0x8753c690>
 160:	053b0b3a 	ldreq	r0, [fp, #-2874]!	; 0xfffff4c6
 164:	13010b39 	movwne	r0, #6969	; 0x1b39
 168:	0d190000 	ldceq	0, cr0, [r9, #-0]
 16c:	3a0e0300 	bcc	380d74 <_start-0x8747f28c>
 170:	39053b0b 	stmdbcc	r5, {r0, r1, r3, r8, r9, fp, ip, sp}
 174:	3813490b 	ldmdacc	r3, {r0, r1, r3, r8, fp, lr}
 178:	1a00000b 	bne	1ac <_start-0x877ffe54>
 17c:	0e030104 	adfeqs	f0, f3, f4
 180:	0b0b0b3e 	bleq	2c2e80 <_start-0x8753d180>
 184:	0b3a1349 	bleq	e84eb0 <_start-0x8697b150>
 188:	0b39053b 	bleq	e4167c <_start-0x869be984>
 18c:	00001301 	andeq	r1, r0, r1, lsl #6
 190:	3f012e1b 	svccc	0x00012e1b
 194:	3a0e0319 	bcc	380e00 <_start-0x8747f200>
 198:	39053b0b 	stmdbcc	r5, {r0, r1, r3, r8, r9, fp, ip, sp}
 19c:	4919270b 	ldmdbmi	r9, {r0, r1, r3, r8, r9, sl, sp}
 1a0:	12011113 	andne	r1, r1, #-1073741820	; 0xc0000004
 1a4:	97184006 	ldrls	r4, [r8, -r6]
 1a8:	13011942 	movwne	r1, #6466	; 0x1942
 1ac:	051c0000 	ldreq	r0, [ip, #-0]
 1b0:	3a080300 	bcc	200db8 <_start-0x875ff248>
 1b4:	39053b0b 	stmdbcc	r5, {r0, r1, r3, r8, r9, fp, ip, sp}
 1b8:	0213490b 	andseq	r4, r3, #180224	; 0x2c000
 1bc:	1742b717 	smlaldne	fp, r2, r7, r7
 1c0:	051d0000 	ldreq	r0, [sp, #-0]
 1c4:	3a080300 	bcc	200dcc <_start-0x875ff234>
 1c8:	39053b0b 	stmdbcc	r5, {r0, r1, r3, r8, r9, fp, ip, sp}
 1cc:	0213490b 	andseq	r4, r3, #180224	; 0x2c000
 1d0:	1e000018 	mcrne	0, 0, r0, cr0, cr8, {0}
 1d4:	08030034 	stmdaeq	r3, {r2, r4, r5}
 1d8:	053b0b3a 	ldreq	r0, [fp, #-2874]!	; 0xfffff4c6
 1dc:	13490b39 	movtne	r0, #39737	; 0x9b39
 1e0:	42b71702 	adcsmi	r1, r7, #524288	; 0x80000
 1e4:	00000017 	andeq	r0, r0, r7, lsl r0

Disassembly of section .debug_aranges:

00000000 <.debug_aranges>:
   0:	0000001c 	andeq	r0, r0, ip, lsl r0
   4:	00000002 	andeq	r0, r0, r2
   8:	00040000 	andeq	r0, r4, r0
   c:	00000000 	andeq	r0, r0, r0
  10:	87803a1c 	usada8hi	r0, ip, sl, r3
  14:	000000c8 	andeq	r0, r0, r8, asr #1
	...
  20:	0000001c 	andeq	r0, r0, ip, lsl r0
  24:	00260002 	eoreq	r0, r6, r2
  28:	00040000 	andeq	r0, r4, r0
  2c:	00000000 	andeq	r0, r0, r0
  30:	87803ae4 	strhi	r3, [r0, r4, ror #21]
  34:	000000d4 	ldrdeq	r0, [r0], -r4
	...
  40:	0000001c 	andeq	r0, r0, ip, lsl r0
  44:	004c0002 	subeq	r0, ip, r2
  48:	00040000 	andeq	r0, r4, r0
  4c:	00000000 	andeq	r0, r0, r0
  50:	87803bb8 			; <UNDEFINED> instruction: 0x87803bb8
  54:	0000003c 	andeq	r0, r0, ip, lsr r0
	...
  60:	0000001c 	andeq	r0, r0, ip, lsl r0
  64:	00720002 	rsbseq	r0, r2, r2
  68:	00040000 	andeq	r0, r4, r0
  6c:	00000000 	andeq	r0, r0, r0
  70:	87803bf4 			; <UNDEFINED> instruction: 0x87803bf4
  74:	00000010 	andeq	r0, r0, r0, lsl r0
	...
  80:	0000001c 	andeq	r0, r0, ip, lsl r0
  84:	00980002 	addseq	r0, r8, r2
  88:	00040000 	andeq	r0, r4, r0
  8c:	00000000 	andeq	r0, r0, r0
  90:	87803c04 	strhi	r3, [r0, r4, lsl #24]
  94:	00000148 	andeq	r0, r0, r8, asr #2
	...

Disassembly of section .debug_str:

00000000 <.debug_str>:
       0:	6c6f562f 	stclvs	6, cr5, [pc], #-188	; ffffff4c <__bss_end+0x787fb314>
       4:	73656d75 	cmnvc	r5, #7488	; 0x1d40
       8:	6f74782f 	svcvs	0x0074782f
       c:	622d6c6f 	eorvs	r6, sp, #28416	; 0x6f00
      10:	646c6975 	strbtvs	r6, [ip], #-2421	; 0xfffff68b
      14:	766e652d 	strbtvc	r6, [lr], -sp, lsr #10
      18:	75622e2f 	strbvc	r2, [r2, #-3631]!	; 0xfffff1d1
      1c:	2f646c69 	svccs	0x00646c69
      20:	2d6d7261 	sfmcs	f7, 2, [sp, #-388]!	; 0xfffffe7c
      24:	6e6b6e75 	mcrvs	14, 3, r6, cr11, cr5, {3}
      28:	2d6e776f 	stclcs	7, cr7, [lr, #-444]!	; 0xfffffe44
      2c:	756e696c 	strbvc	r6, [lr, #-2412]!	; 0xfffff694
      30:	6e672d78 	mcrvs	13, 3, r2, cr7, cr8, {3}
      34:	62616575 	rsbvs	r6, r1, #490733568	; 0x1d400000
      38:	2f666869 	svccs	0x00666869
      3c:	2f637273 	svccs	0x00637273
      40:	2f636367 	svccs	0x00636367
      44:	6762696c 	strbvs	r6, [r2, -ip, ror #18]!
      48:	632f6363 			; <UNDEFINED> instruction: 0x632f6363
      4c:	69666e6f 	stmdbvs	r6!, {r0, r1, r2, r3, r5, r6, r9, sl, fp, sp, lr}^
      50:	72612f67 	rsbvc	r2, r1, #412	; 0x19c
      54:	696c2f6d 	stmdbvs	ip!, {r0, r2, r3, r5, r6, r8, r9, sl, fp, sp}^
      58:	75663162 	strbvc	r3, [r6, #-354]!	; 0xfffffe9e
      5c:	2e73636e 	cdpcs	3, 7, cr6, cr3, cr14, {3}
      60:	562f0053 			; <UNDEFINED> instruction: 0x562f0053
      64:	6d756c6f 	ldclvs	12, cr6, [r5, #-444]!	; 0xfffffe44
      68:	782f7365 	stmdavc	pc!, {r0, r2, r5, r6, r8, r9, ip, sp, lr}	; <UNPREDICTABLE>
      6c:	6c6f6f74 	stclvs	15, cr6, [pc], #-464	; fffffea4 <__bss_end+0x787fb26c>
      70:	6975622d 	ldmdbvs	r5!, {r0, r2, r3, r5, r9, sp, lr}^
      74:	652d646c 	strvs	r6, [sp, #-1132]!	; 0xfffffb94
      78:	2e2f766e 	cfmadda32cs	mvax3, mvax7, mvfx15, mvfx14
      7c:	6c697562 	cfstr64vs	mvdx7, [r9], #-392	; 0xfffffe78
      80:	72612f64 	rsbvc	r2, r1, #100, 30	; 0x190
      84:	6e752d6d 	cdpvs	13, 7, cr2, cr5, cr13, {3}
      88:	776f6e6b 	strbvc	r6, [pc, -fp, ror #28]!
      8c:	696c2d6e 	stmdbvs	ip!, {r1, r2, r3, r5, r6, r8, sl, fp, sp}^
      90:	2d78756e 	cfldr64cs	mvdx7, [r8, #-440]!	; 0xfffffe48
      94:	65756e67 	ldrbvs	r6, [r5, #-3687]!	; 0xfffff199
      98:	68696261 	stmdavs	r9!, {r0, r5, r6, r9, sp, lr}^
      9c:	75622f66 	strbvc	r2, [r2, #-3942]!	; 0xfffff09a
      a0:	2f646c69 	svccs	0x00646c69
      a4:	6c697562 	cfstr64vs	mvdx7, [r9], #-392	; 0xfffffe78
      a8:	63632d64 	cmnvs	r3, #100, 26	; 0x1900
      ac:	6363672d 	cmnvs	r3, #11796480	; 0xb40000
      b0:	6e69662d 	cdpvs	6, 6, cr6, cr9, cr13, {1}
      b4:	612f6c61 			; <UNDEFINED> instruction: 0x612f6c61
      b8:	752d6d72 	strvc	r6, [sp, #-3442]!	; 0xfffff28e
      bc:	6f6e6b6e 	svcvs	0x006e6b6e
      c0:	6c2d6e77 	stcvs	14, cr6, [sp], #-476	; 0xfffffe24
      c4:	78756e69 	ldmdavc	r5!, {r0, r3, r5, r6, r9, sl, fp, sp, lr}^
      c8:	756e672d 	strbvc	r6, [lr, #-1837]!	; 0xfffff8d3
      cc:	69626165 	stmdbvs	r2!, {r0, r2, r5, r6, r8, sp, lr}^
      d0:	6c2f6668 	stcvs	6, cr6, [pc], #-416	; ffffff38 <__bss_end+0x787fb300>
      d4:	63676269 	cmnvs	r7, #-1879048186	; 0x90000006
      d8:	4e470063 	cdpmi	0, 4, cr0, cr7, cr3, {3}
      dc:	53412055 	movtpl	r2, #4181	; 0x1055
      e0:	332e3220 			; <UNDEFINED> instruction: 0x332e3220
      e4:	562f0032 			; <UNDEFINED> instruction: 0x562f0032
      e8:	6d756c6f 	ldclvs	12, cr6, [r5, #-444]!	; 0xfffffe44
      ec:	782f7365 	stmdavc	pc!, {r0, r2, r5, r6, r8, r9, ip, sp, lr}	; <UNPREDICTABLE>
      f0:	6c6f6f74 	stclvs	15, cr6, [pc], #-464	; ffffff28 <__bss_end+0x787fb2f0>
      f4:	6975622d 	ldmdbvs	r5!, {r0, r2, r3, r5, r9, sp, lr}^
      f8:	652d646c 	strvs	r6, [sp, #-1132]!	; 0xfffffb94
      fc:	2e2f766e 	cfmadda32cs	mvax3, mvax7, mvfx15, mvfx14
     100:	6c697562 	cfstr64vs	mvdx7, [r9], #-392	; 0xfffffe78
     104:	72612f64 	rsbvc	r2, r1, #100, 30	; 0x190
     108:	6e752d6d 	cdpvs	13, 7, cr2, cr5, cr13, {3}
     10c:	776f6e6b 	strbvc	r6, [pc, -fp, ror #28]!
     110:	696c2d6e 	stmdbvs	ip!, {r1, r2, r3, r5, r6, r8, sl, fp, sp}^
     114:	2d78756e 	cfldr64cs	mvdx7, [r8, #-440]!	; 0xfffffe48
     118:	65756e67 	ldrbvs	r6, [r5, #-3687]!	; 0xfffff199
     11c:	68696261 	stmdavs	r9!, {r0, r5, r6, r9, sp, lr}^
     120:	72732f66 	rsbsvc	r2, r3, #408	; 0x198
     124:	63672f63 	cmnvs	r7, #396	; 0x18c
     128:	696c2f63 	stmdbvs	ip!, {r0, r1, r5, r6, r8, r9, sl, fp, sp}^
     12c:	63636762 	cmnvs	r3, #25690112	; 0x1880000
     130:	6e6f632f 	cdpvs	3, 6, cr6, cr15, cr15, {1}
     134:	2f676966 	svccs	0x00676966
     138:	2f6d7261 	svccs	0x006d7261
     13c:	62617062 	rsbvs	r7, r1, #98, 0	; 0x62
     140:	00532e69 	subseq	r2, r3, r9, ror #28
     144:	5f617369 	svcpl	0x00617369
     148:	5f746962 	svcpl	0x00746962
     14c:	645f7066 	ldrbvs	r7, [pc], #-102	; 154 <_start-0x877ffeac>
     150:	54006c62 	strpl	r6, [r0], #-3170	; 0xfffff39e
     154:	45475241 	strbmi	r5, [r7, #-577]	; 0xfffffdbf
     158:	50435f54 	subpl	r5, r3, r4, asr pc
     15c:	72615f55 	rsbvc	r5, r1, #340	; 0x154
     160:	3331316d 	teqcc	r1, #1073741851	; 0x4000001b
     164:	00736a36 	rsbseq	r6, r3, r6, lsr sl
     168:	5f6d7261 	svcpl	0x006d7261
     16c:	68637261 	stmdavs	r3!, {r0, r5, r6, r9, ip, sp, lr}^
     170:	6d77695f 			; <UNDEFINED> instruction: 0x6d77695f
     174:	0074786d 	rsbseq	r7, r4, sp, ror #16
     178:	47524154 			; <UNDEFINED> instruction: 0x47524154
     17c:	435f5445 	cmpmi	pc, #1157627904	; 0x45000000
     180:	635f5550 	cmpvs	pc, #80, 10	; 0x14000000
     184:	6574726f 	ldrbvs	r7, [r4, #-623]!	; 0xfffffd91
     188:	33326d78 	teqcc	r2, #120, 26	; 0x1e00
     18c:	68735f00 	ldmdavs	r3!, {r8, r9, sl, fp, ip, lr}^
     190:	6274726f 	rsbsvs	r7, r4, #-268435450	; 0xf0000006
     194:	41006675 	tstmi	r0, r5, ror r6
     198:	455f4d52 	ldrbmi	r4, [pc, #-3410]	; fffff44e <__bss_end+0x787fa816>
     19c:	495f0051 	ldmdbmi	pc, {r0, r4, r6}^	; <UNPREDICTABLE>
     1a0:	6f6c5f4f 	svcvs	0x006c5f4f
     1a4:	745f6b63 	ldrbvc	r6, [pc], #-2915	; 1ac <_start-0x877ffe54>
     1a8:	52415400 	subpl	r5, r1, #0, 8
     1ac:	5f544547 	svcpl	0x00544547
     1b0:	5f555043 	svcpl	0x00555043
     1b4:	316d7261 	cmncc	sp, r1, ror #4
     1b8:	74363531 	ldrtvc	r3, [r6], #-1329	; 0xfffffacf
     1bc:	00736632 	rsbseq	r6, r3, r2, lsr r6
     1c0:	5f617369 	svcpl	0x00617369
     1c4:	5f746962 	svcpl	0x00746962
     1c8:	6d756874 	ldclvs	8, cr6, [r5, #-464]!	; 0xfffffe30
     1cc:	72700062 	rsbsvc	r0, r0, #98, 0	; 0x62
     1d0:	6172676f 	cmnvs	r2, pc, ror #14
     1d4:	6e695f6d 	cdpvs	15, 6, cr5, cr9, cr13, {3}
     1d8:	61636f76 	smcvs	14070	; 0x36f6
     1dc:	6e6f6974 			; <UNDEFINED> instruction: 0x6e6f6974
     1e0:	6f68735f 	svcvs	0x0068735f
     1e4:	6e5f7472 	mrcvs	4, 2, r7, cr15, cr2, {3}
     1e8:	00656d61 	rsbeq	r6, r5, r1, ror #26
     1ec:	65647473 	strbvs	r7, [r4, #-1139]!	; 0xfffffb8d
     1f0:	55007272 	strpl	r7, [r0, #-626]	; 0xfffffd8e
     1f4:	79744944 	ldmdbvc	r4!, {r2, r6, r8, fp, lr}^
     1f8:	54006570 	strpl	r6, [r0], #-1392	; 0xfffffa90
     1fc:	45475241 	strbmi	r5, [r7, #-577]	; 0xfffffdbf
     200:	50435f54 	subpl	r5, r3, r4, asr pc
     204:	6f635f55 	svcvs	0x00635f55
     208:	78657472 	stmdavc	r5!, {r1, r4, r5, r6, sl, ip, sp, lr}^
     20c:	63373561 	teqvs	r7, #406847488	; 0x18400000
     210:	6574726f 	ldrbvs	r7, [r4, #-623]!	; 0xfffffd91
     214:	33356178 	teqcc	r5, #30
     218:	4f495f00 	svcmi	0x00495f00
     21c:	6675625f 			; <UNDEFINED> instruction: 0x6675625f
     220:	646e655f 	strbtvs	r6, [lr], #-1375	; 0xfffffaa1
     224:	755f5f00 	ldrbvc	r5, [pc, #-3840]	; fffff32c <__bss_end+0x787fa6f4>
     228:	6d766964 			; <UNDEFINED> instruction: 0x6d766964
     22c:	6964646f 	stmdbvs	r4!, {r0, r1, r2, r3, r5, r6, sl, sp, lr}^
     230:	41420034 	cmpmi	r2, r4, lsr r0
     234:	415f4553 	cmpmi	pc, r3, asr r5	; <UNPREDICTABLE>
     238:	5f484352 	svcpl	0x00484352
     23c:	425f4d38 	subsmi	r4, pc, #56, 26	; 0xe00
     240:	00455341 	subeq	r5, r5, r1, asr #6
     244:	47524154 			; <UNDEFINED> instruction: 0x47524154
     248:	435f5445 	cmpmi	pc, #1157627904	; 0x45000000
     24c:	615f5550 	cmpvs	pc, r0, asr r5	; <UNPREDICTABLE>
     250:	31386d72 	teqcc	r8, r2, ror sp
     254:	41540030 	cmpmi	r4, r0, lsr r0
     258:	54454752 	strbpl	r4, [r5], #-1874	; 0xfffff8ae
     25c:	5550435f 	ldrbpl	r4, [r0, #-863]	; 0xfffffca1
     260:	6567785f 	strbvs	r7, [r7, #-2143]!	; 0xfffff7a1
     264:	0031656e 	eorseq	r6, r1, lr, ror #10
     268:	5f4d5241 	svcpl	0x004d5241
     26c:	5f534350 	svcpl	0x00534350
     270:	43504141 	cmpmi	r0, #1073741840	; 0x40000010
     274:	57495f53 	smlsldpl	r5, r9, r3, pc	; <UNPREDICTABLE>
     278:	54584d4d 	ldrbpl	r4, [r8], #-3405	; 0xfffff2b3
     27c:	74706f00 	ldrbtvc	r6, [r0], #-3840	; 0xfffff100
     280:	0074706f 	rsbseq	r7, r4, pc, rrx
     284:	47524154 			; <UNDEFINED> instruction: 0x47524154
     288:	435f5445 	cmpmi	pc, #1157627904	; 0x45000000
     28c:	615f5550 	cmpvs	pc, r0, asr r5	; <UNPREDICTABLE>
     290:	64376d72 	ldrtvs	r6, [r7], #-3442	; 0xfffff28e
     294:	41420069 	cmpmi	r2, r9, rrx
     298:	415f4553 	cmpmi	pc, r3, asr r5	; <UNPREDICTABLE>
     29c:	5f484352 	svcpl	0x00484352
     2a0:	41420032 	cmpmi	r2, r2, lsr r0
     2a4:	415f4553 	cmpmi	pc, r3, asr r5	; <UNPREDICTABLE>
     2a8:	5f484352 	svcpl	0x00484352
     2ac:	41540033 	cmpmi	r4, r3, lsr r0
     2b0:	54454752 	strbpl	r4, [r5], #-1874	; 0xfffff8ae
     2b4:	5550435f 	ldrbpl	r4, [r0, #-863]	; 0xfffffca1
     2b8:	6d72615f 	ldfvse	f6, [r2, #-380]!	; 0xfffffe84
     2bc:	006d6437 	rsbeq	r6, sp, r7, lsr r4
     2c0:	45534142 	ldrbmi	r4, [r3, #-322]	; 0xfffffebe
     2c4:	4352415f 	cmpmi	r2, #-1073741801	; 0xc0000017
     2c8:	00355f48 	eorseq	r5, r5, r8, asr #30
     2cc:	45534142 	ldrbmi	r4, [r3, #-322]	; 0xfffffebe
     2d0:	4352415f 	cmpmi	r2, #-1073741801	; 0xc0000017
     2d4:	00365f48 	eorseq	r5, r6, r8, asr #30
     2d8:	45534142 	ldrbmi	r4, [r3, #-322]	; 0xfffffebe
     2dc:	4352415f 	cmpmi	r2, #-1073741801	; 0xc0000017
     2e0:	00375f48 	eorseq	r5, r7, r8, asr #30
     2e4:	47524154 			; <UNDEFINED> instruction: 0x47524154
     2e8:	435f5445 	cmpmi	pc, #1157627904	; 0x45000000
     2ec:	785f5550 	ldmdavc	pc, {r4, r6, r8, sl, ip, lr}^	; <UNPREDICTABLE>
     2f0:	6c616373 	stclvs	3, cr6, [r1], #-460	; 0xfffffe34
     2f4:	41540065 	cmpmi	r4, r5, rrx
     2f8:	54454752 	strbpl	r4, [r5], #-1874	; 0xfffff8ae
     2fc:	5550435f 	ldrbpl	r4, [r0, #-863]	; 0xfffffca1
     300:	6d72615f 	ldfvse	f6, [r2, #-380]!	; 0xfffffe84
     304:	65363439 	ldrvs	r3, [r6, #-1081]!	; 0xfffffbc7
     308:	495f0073 	ldmdbmi	pc, {r0, r1, r4, r5, r6}^	; <UNPREDICTABLE>
     30c:	72775f4f 	rsbsvc	r5, r7, #316	; 0x13c
     310:	5f657469 	svcpl	0x00657469
     314:	00646e65 	rsbeq	r6, r4, r5, ror #28
     318:	47524154 			; <UNDEFINED> instruction: 0x47524154
     31c:	435f5445 	cmpmi	pc, #1157627904	; 0x45000000
     320:	635f5550 	cmpvs	pc, #80, 10	; 0x14000000
     324:	6574726f 	ldrbvs	r7, [r4, #-623]!	; 0xfffffd91
     328:	33336d78 	teqcc	r3, #120, 26	; 0x1e00
     32c:	72665f00 	rsbvc	r5, r6, #0, 30
     330:	65726565 	ldrbvs	r6, [r2, #-1381]!	; 0xfffffa9b
     334:	696c5f73 	stmdbvs	ip!, {r0, r1, r4, r5, r6, r8, r9, sl, fp, ip, lr}^
     338:	67007473 	smlsdxvs	r0, r3, r4, r7
     33c:	61647465 	cmnvs	r4, r5, ror #8
     340:	655f6574 	ldrbvs	r6, [pc, #-1396]	; fffffdd4 <__bss_end+0x787fb19c>
     344:	55007272 	strpl	r7, [r0, #-626]	; 0xfffffd8e
     348:	79744953 	ldmdbvc	r4!, {r0, r1, r4, r6, r8, fp, lr}^
     34c:	5f006570 	svcpl	0x00006570
     350:	67616c66 	strbvs	r6, [r1, -r6, ror #24]!
     354:	41540073 	cmpmi	r4, r3, ror r0
     358:	54454752 	strbpl	r4, [r5], #-1874	; 0xfffff8ae
     35c:	5550435f 	ldrbpl	r4, [r0, #-863]	; 0xfffffca1
     360:	6d72615f 	ldfvse	f6, [r2, #-380]!	; 0xfffffe84
     364:	6d647437 	cfstrdvs	mvd7, [r4, #-220]!	; 0xffffff24
     368:	73690069 	cmnvc	r9, #105, 0	; 0x69
     36c:	6f6e5f61 	svcvs	0x006e5f61
     370:	00746962 	rsbseq	r6, r4, r2, ror #18
     374:	47524154 			; <UNDEFINED> instruction: 0x47524154
     378:	435f5445 	cmpmi	pc, #1157627904	; 0x45000000
     37c:	615f5550 	cmpvs	pc, r0, asr r5	; <UNPREDICTABLE>
     380:	31316d72 	teqcc	r1, r2, ror sp
     384:	7a6a3637 	bvc	1a8dc68 <_start-0x85d72398>
     388:	41007366 	tstmi	r0, r6, ror #6
     38c:	505f4d52 	subspl	r4, pc, r2, asr sp	; <UNPREDICTABLE>
     390:	555f5343 	ldrbpl	r5, [pc, #-835]	; 55 <_start-0x877fffab>
     394:	4f4e4b4e 	svcmi	0x004e4b4e
     398:	5f004e57 	svcpl	0x00004e57
     39c:	67616c66 	strbvs	r6, [r1, -r6, ror #24]!
     3a0:	54003273 	strpl	r3, [r0], #-627	; 0xfffffd8d
     3a4:	45475241 	strbmi	r5, [r7, #-577]	; 0xfffffdbf
     3a8:	50435f54 	subpl	r5, r3, r4, asr pc
     3ac:	72615f55 	rsbvc	r5, r1, #340	; 0x154
     3b0:	0065396d 	rsbeq	r3, r5, sp, ror #18
     3b4:	45534142 	ldrbmi	r4, [r3, #-322]	; 0xfffffebe
     3b8:	4352415f 	cmpmi	r2, #-1073741801	; 0xc0000017
     3bc:	54355f48 	ldrtpl	r5, [r5], #-3912	; 0xfffff0b8
     3c0:	61004a45 	tstvs	r0, r5, asr #20
     3c4:	635f6d72 	cmpvs	pc, #7296	; 0x1c80
     3c8:	6d736663 	ldclvs	6, cr6, [r3, #-396]!	; 0xfffffe74
     3cc:	6174735f 	cmnvs	r4, pc, asr r3
     3d0:	69006574 	stmdbvs	r0, {r2, r4, r5, r6, r8, sl, sp, lr}
     3d4:	625f6173 	subsvs	r6, pc, #-1073741796	; 0xc000001c
     3d8:	695f7469 	ldmdbvs	pc, {r0, r3, r5, r6, sl, ip, sp, lr}^	; <UNPREDICTABLE>
     3dc:	786d6d77 	stmdavc	sp!, {r0, r1, r2, r4, r5, r6, r8, sl, fp, sp, lr}^
     3e0:	75003274 	strvc	r3, [r0, #-628]	; 0xfffffd8c
     3e4:	6570736e 	ldrbvs	r7, [r0, #-878]!	; 0xfffffc92
     3e8:	74735f63 	ldrbtvc	r5, [r3], #-3939	; 0xfffff09d
     3ec:	676e6972 			; <UNDEFINED> instruction: 0x676e6972
     3f0:	73690073 	cmnvc	r9, #115, 0	; 0x73
     3f4:	69625f61 	stmdbvs	r2!, {r0, r5, r6, r8, r9, sl, fp, ip, lr}^
     3f8:	65735f74 	ldrbvs	r5, [r3, #-3956]!	; 0xfffff08c
     3fc:	5f5f0063 	svcpl	0x005f0063
     400:	5f7a6c63 	svcpl	0x007a6c63
     404:	00626174 	rsbeq	r6, r2, r4, ror r1
     408:	5f4d5241 	svcpl	0x004d5241
     40c:	61004356 	tstvs	r0, r6, asr r3
     410:	615f6d72 	cmpvs	pc, r2, ror sp	; <UNPREDICTABLE>
     414:	5f686372 	svcpl	0x00686372
     418:	61637378 	smcvs	14136	; 0x3738
     41c:	4100656c 	tstmi	r0, ip, ror #10
     420:	4c5f4d52 	mrrcmi	13, 5, r4, pc, cr2	; <UNPREDICTABLE>
     424:	52410045 	subpl	r0, r1, #69, 0	; 0x45
     428:	53565f4d 	cmppl	r6, #308	; 0x134
     42c:	4d524100 	ldfmie	f4, [r2, #-0]
     430:	0045475f 	subeq	r4, r5, pc, asr r7
     434:	5f6d7261 	svcpl	0x006d7261
     438:	656e7574 	strbvs	r7, [lr, #-1396]!	; 0xfffffa8c
     43c:	7274735f 	rsbsvc	r7, r4, #2080374785	; 0x7c000001
     440:	61676e6f 	cmnvs	r7, pc, ror #28
     444:	63006d72 	movwvs	r6, #3442	; 0xd72
     448:	6c706d6f 	ldclvs	13, cr6, [r0], #-444	; 0xfffffe44
     44c:	66207865 	strtvs	r7, [r0], -r5, ror #16
     450:	74616f6c 	strbtvc	r6, [r1], #-3948	; 0xfffff094
     454:	61736900 	cmnvs	r3, r0, lsl #18
     458:	7469625f 	strbtvc	r6, [r9], #-607	; 0xfffffda1
     45c:	736d635f 	cmnvc	sp, #2080374785	; 0x7c000001
     460:	41540065 	cmpmi	r4, r5, rrx
     464:	54454752 	strbpl	r4, [r5], #-1874	; 0xfffff8ae
     468:	5550435f 	ldrbpl	r4, [r0, #-863]	; 0xfffffca1
     46c:	726f635f 	rsbvc	r6, pc, #2080374785	; 0x7c000001
     470:	61786574 	cmnvs	r8, r4, ror r5
     474:	55003531 	strpl	r3, [r0, #-1329]	; 0xfffffacf
     478:	79744951 	ldmdbvc	r4!, {r0, r4, r6, r8, fp, lr}^
     47c:	54006570 	strpl	r6, [r0], #-1392	; 0xfffffa90
     480:	45475241 	strbmi	r5, [r7, #-577]	; 0xfffffdbf
     484:	50435f54 	subpl	r5, r3, r4, asr pc
     488:	61665f55 	cmnvs	r6, r5, asr pc
     48c:	74363237 	ldrtvc	r3, [r6], #-567	; 0xfffffdc9
     490:	41540065 	cmpmi	r4, r5, rrx
     494:	54454752 	strbpl	r4, [r5], #-1874	; 0xfffff8ae
     498:	5550435f 	ldrbpl	r4, [r0, #-863]	; 0xfffffca1
     49c:	726f635f 	rsbvc	r6, pc, #2080374785	; 0x7c000001
     4a0:	61786574 	cmnvs	r8, r4, ror r5
     4a4:	41003731 	tstmi	r0, r1, lsr r7
     4a8:	475f4d52 			; <UNDEFINED> instruction: 0x475f4d52
     4ac:	52410054 	subpl	r0, r1, #84, 0	; 0x54
     4b0:	544c5f4d 	strbpl	r5, [ip], #-3917	; 0xfffff0b3
     4b4:	61736900 	cmnvs	r3, r0, lsl #18
     4b8:	7469625f 	strbtvc	r6, [r9], #-607	; 0xfffffda1
     4bc:	3170665f 	cmncc	r0, pc, asr r6
     4c0:	6e6f6336 	mcrvs	3, 3, r6, cr15, cr6, {1}
     4c4:	5f5f0076 	svcpl	0x005f0076
     4c8:	656d6974 	strbvs	r6, [sp, #-2420]!	; 0xfffff68c
     4cc:	656e6f7a 	strbvs	r6, [lr, #-3962]!	; 0xfffff086
     4d0:	52415400 	subpl	r5, r1, #0, 8
     4d4:	5f544547 	svcpl	0x00544547
     4d8:	5f555043 	svcpl	0x00555043
     4dc:	74726f63 	ldrbtvc	r6, [r2], #-3939	; 0xfffff09d
     4e0:	34727865 	ldrbtcc	r7, [r2], #-2149	; 0xfffff79b
     4e4:	41540066 	cmpmi	r4, r6, rrx
     4e8:	54454752 	strbpl	r4, [r5], #-1874	; 0xfffff8ae
     4ec:	5550435f 	ldrbpl	r4, [r0, #-863]	; 0xfffffca1
     4f0:	6d72615f 	ldfvse	f6, [r2, #-380]!	; 0xfffffe84
     4f4:	00303239 	eorseq	r3, r0, r9, lsr r2
     4f8:	45534142 	ldrbmi	r4, [r3, #-322]	; 0xfffffebe
     4fc:	4352415f 	cmpmi	r2, #-1073741801	; 0xc0000017
     500:	45375f48 	ldrmi	r5, [r7, #-3912]!	; 0xfffff0b8
     504:	4154004d 	cmpmi	r4, sp, asr #32
     508:	54454752 	strbpl	r4, [r5], #-1874	; 0xfffff8ae
     50c:	5550435f 	ldrbpl	r4, [r0, #-863]	; 0xfffffca1
     510:	726f635f 	rsbvc	r6, pc, #2080374785	; 0x7c000001
     514:	61786574 	cmnvs	r8, r4, ror r5
     518:	68003231 	stmdavs	r0, {r0, r4, r5, r9, ip, sp}
     51c:	76687361 	strbtvc	r7, [r8], -r1, ror #6
     520:	745f6c61 	ldrbvc	r6, [pc], #-3169	; 528 <_start-0x877ffad8>
     524:	53414200 	movtpl	r4, #4608	; 0x1200
     528:	52415f45 	subpl	r5, r1, #276	; 0x114
     52c:	365f4843 	ldrbcc	r4, [pc], -r3, asr #16
     530:	69005a4b 	stmdbvs	r0, {r0, r1, r3, r6, r9, fp, ip, lr}
     534:	625f6173 	subsvs	r6, pc, #-1073741796	; 0xc000001c
     538:	00737469 	rsbseq	r7, r3, r9, ror #8
     53c:	5f6d7261 	svcpl	0x006d7261
     540:	68637261 	stmdavs	r3!, {r0, r5, r6, r9, ip, sp, lr}^
     544:	6d72615f 	ldfvse	f6, [r2, #-380]!	; 0xfffffe84
     548:	6477685f 	ldrbtvs	r6, [r7], #-2143	; 0xfffff7a1
     54c:	61007669 	tstvs	r0, r9, ror #12
     550:	665f6d72 			; <UNDEFINED> instruction: 0x665f6d72
     554:	645f7570 	ldrbvs	r7, [pc], #-1392	; 55c <_start-0x877ffaa4>
     558:	00637365 	rsbeq	r7, r3, r5, ror #6
     55c:	47524154 			; <UNDEFINED> instruction: 0x47524154
     560:	435f5445 	cmpmi	pc, #1157627904	; 0x45000000
     564:	635f5550 	cmpvs	pc, #80, 10	; 0x14000000
     568:	6574726f 	ldrbvs	r7, [r4, #-623]!	; 0xfffffd91
     56c:	00357278 	eorseq	r7, r5, r8, ror r2
     570:	6f647473 	svcvs	0x00647473
     574:	69007475 	stmdbvs	r0, {r0, r2, r4, r5, r6, sl, ip, sp, lr}
     578:	625f6173 	subsvs	r6, pc, #-1073741796	; 0xc000001c
     57c:	665f7469 	ldrbvs	r7, [pc], -r9, ror #8
     580:	00363170 	eorseq	r3, r6, r0, ror r1
     584:	5f4f495f 	svcpl	0x004f495f
     588:	65766173 	ldrbvs	r6, [r6, #-371]!	; 0xfffffe8d
     58c:	646e655f 	strbtvs	r6, [lr], #-1375	; 0xfffffaa1
     590:	4d524100 	ldfmie	f4, [r2, #-0]
     594:	0049485f 	subeq	r4, r9, pc, asr r8
     598:	47524154 			; <UNDEFINED> instruction: 0x47524154
     59c:	435f5445 	cmpmi	pc, #1157627904	; 0x45000000
     5a0:	615f5550 	cmpvs	pc, r0, asr r5	; <UNPREDICTABLE>
     5a4:	00326d72 	eorseq	r6, r2, r2, ror sp
     5a8:	47524154 			; <UNDEFINED> instruction: 0x47524154
     5ac:	435f5445 	cmpmi	pc, #1157627904	; 0x45000000
     5b0:	615f5550 	cmpvs	pc, r0, asr r5	; <UNPREDICTABLE>
     5b4:	00336d72 	eorseq	r6, r3, r2, ror sp
     5b8:	47524154 			; <UNDEFINED> instruction: 0x47524154
     5bc:	435f5445 	cmpmi	pc, #1157627904	; 0x45000000
     5c0:	615f5550 	cmpvs	pc, r0, asr r5	; <UNPREDICTABLE>
     5c4:	31376d72 	teqcc	r7, r2, ror sp
     5c8:	54003030 	strpl	r3, [r0], #-48	; 0xffffffd0
     5cc:	45475241 	strbmi	r5, [r7, #-577]	; 0xfffffdbf
     5d0:	50435f54 	subpl	r5, r3, r4, asr pc
     5d4:	72615f55 	rsbvc	r5, r1, #340	; 0x154
     5d8:	5400366d 	strpl	r3, [r0], #-1645	; 0xfffff993
     5dc:	45475241 	strbmi	r5, [r7, #-577]	; 0xfffffdbf
     5e0:	50435f54 	subpl	r5, r3, r4, asr pc
     5e4:	72615f55 	rsbvc	r5, r1, #340	; 0x154
     5e8:	5400376d 	strpl	r3, [r0], #-1901	; 0xfffff893
     5ec:	45475241 	strbmi	r5, [r7, #-577]	; 0xfffffdbf
     5f0:	50435f54 	subpl	r5, r3, r4, asr pc
     5f4:	72615f55 	rsbvc	r5, r1, #340	; 0x154
     5f8:	5400386d 	strpl	r3, [r0], #-2157	; 0xfffff793
     5fc:	45475241 	strbmi	r5, [r7, #-577]	; 0xfffffdbf
     600:	50435f54 	subpl	r5, r3, r4, asr pc
     604:	72615f55 	rsbvc	r5, r1, #340	; 0x154
     608:	5400396d 	strpl	r3, [r0], #-2413	; 0xfffff693
     60c:	45475241 	strbmi	r5, [r7, #-577]	; 0xfffffdbf
     610:	50435f54 	subpl	r5, r3, r4, asr pc
     614:	61665f55 	cmnvs	r6, r5, asr pc
     618:	00363236 	eorseq	r3, r6, r6, lsr r2
     61c:	45534142 	ldrbmi	r4, [r3, #-322]	; 0xfffffebe
     620:	4352415f 	cmpmi	r2, #-1073741801	; 0xc0000017
     624:	4d335f48 	ldcmi	15, cr5, [r3, #-288]!	; 0xfffffee0
     628:	52415400 	subpl	r5, r1, #0, 8
     62c:	5f544547 	svcpl	0x00544547
     630:	5f555043 	svcpl	0x00555043
     634:	5f6d7261 	svcpl	0x006d7261
     638:	656e6f6e 	strbvs	r6, [lr, #-3950]!	; 0xfffff092
     63c:	6e6f6c00 	cdpvs	12, 6, cr6, cr15, cr0, {0}
     640:	6f6c2067 	svcvs	0x006c2067
     644:	7520676e 	strvc	r6, [r0, #-1902]!	; 0xfffff892
     648:	6769736e 	strbvs	r7, [r9, -lr, ror #6]!
     64c:	2064656e 	rsbcs	r6, r4, lr, ror #10
     650:	00746e69 	rsbseq	r6, r4, r9, ror #28
     654:	5f6d7261 	svcpl	0x006d7261
     658:	68637261 	stmdavs	r3!, {r0, r5, r6, r9, ip, sp, lr}^
     65c:	736d635f 	cmnvc	sp, #2080374785	; 0x7c000001
     660:	41540065 	cmpmi	r4, r5, rrx
     664:	54454752 	strbpl	r4, [r5], #-1874	; 0xfffff8ae
     668:	5550435f 	ldrbpl	r4, [r0, #-863]	; 0xfffffca1
     66c:	6d72615f 	ldfvse	f6, [r2, #-380]!	; 0xfffffe84
     670:	00303136 	eorseq	r3, r0, r6, lsr r1
     674:	47524154 			; <UNDEFINED> instruction: 0x47524154
     678:	435f5445 	cmpmi	pc, #1157627904	; 0x45000000
     67c:	635f5550 	cmpvs	pc, #80, 10	; 0x14000000
     680:	6574726f 	ldrbvs	r7, [r4, #-623]!	; 0xfffffd91
     684:	00346d78 	eorseq	r6, r4, r8, ror sp
     688:	47524154 			; <UNDEFINED> instruction: 0x47524154
     68c:	435f5445 	cmpmi	pc, #1157627904	; 0x45000000
     690:	615f5550 	cmpvs	pc, r0, asr r5	; <UNPREDICTABLE>
     694:	30316d72 	eorscc	r6, r1, r2, ror sp
     698:	41540065 	cmpmi	r4, r5, rrx
     69c:	54454752 	strbpl	r4, [r5], #-1874	; 0xfffff8ae
     6a0:	5550435f 	ldrbpl	r4, [r0, #-863]	; 0xfffffca1
     6a4:	726f635f 	rsbvc	r6, pc, #2080374785	; 0x7c000001
     6a8:	6d786574 	cfldr64vs	mvdx6, [r8, #-464]!	; 0xfffffe30
     6ac:	41540037 	cmpmi	r4, r7, lsr r0
     6b0:	54454752 	strbpl	r4, [r5], #-1874	; 0xfffff8ae
     6b4:	5550435f 	ldrbpl	r4, [r0, #-863]	; 0xfffffca1
     6b8:	6d72615f 	ldfvse	f6, [r2, #-380]!	; 0xfffffe84
     6bc:	30303537 	eorscc	r3, r0, r7, lsr r5
     6c0:	2f006566 	svccs	0x00006566
     6c4:	756c6f56 	strbvc	r6, [ip, #-3926]!	; 0xfffff0aa
     6c8:	2f73656d 	svccs	0x0073656d
     6cc:	6f6f7478 	svcvs	0x006f7478
     6d0:	75622d6c 	strbvc	r2, [r2, #-3436]!	; 0xfffff294
     6d4:	2d646c69 	stclcs	12, cr6, [r4, #-420]!	; 0xfffffe5c
     6d8:	2f766e65 	svccs	0x00766e65
     6dc:	6975622e 	ldmdbvs	r5!, {r1, r2, r3, r5, r9, sp, lr}^
     6e0:	612f646c 			; <UNDEFINED> instruction: 0x612f646c
     6e4:	752d6d72 	strvc	r6, [sp, #-3442]!	; 0xfffff28e
     6e8:	6f6e6b6e 	svcvs	0x006e6b6e
     6ec:	6c2d6e77 	stcvs	14, cr6, [sp], #-476	; 0xfffffe24
     6f0:	78756e69 	ldmdavc	r5!, {r0, r3, r5, r6, r9, sl, fp, sp, lr}^
     6f4:	756e672d 	strbvc	r6, [lr, #-1837]!	; 0xfffff8d3
     6f8:	69626165 	stmdbvs	r2!, {r0, r2, r5, r6, r8, sp, lr}^
     6fc:	732f6668 			; <UNDEFINED> instruction: 0x732f6668
     700:	672f6372 			; <UNDEFINED> instruction: 0x672f6372
     704:	6c2f6363 	stcvs	3, cr6, [pc], #-396	; 580 <_start-0x877ffa80>
     708:	63676269 	cmnvs	r7, #-1879048186	; 0x90000006
     70c:	696c2f63 	stmdbvs	ip!, {r0, r1, r5, r6, r8, r9, sl, fp, sp}^
     710:	63636762 	cmnvs	r3, #25690112	; 0x1880000
     714:	00632e32 	rsbeq	r2, r3, r2, lsr lr
     718:	5f6d7261 	svcpl	0x006d7261
     71c:	646e6f63 	strbtvs	r6, [lr], #-3939	; 0xfffff09d
     720:	646f635f 	strbtvs	r6, [pc], #-863	; 728 <_start-0x877ff8d8>
     724:	52410065 	subpl	r0, r1, #101, 0	; 0x65
     728:	43505f4d 	cmpmi	r0, #308	; 0x134
     72c:	41415f53 	cmpmi	r1, r3, asr pc
     730:	00534350 	subseq	r4, r3, r0, asr r3
     734:	5f4f495f 	svcpl	0x004f495f
     738:	6b636162 	blvs	18d8cc8 <_start-0x85f27338>
     73c:	625f7075 	subsvs	r7, pc, #117, 0	; 0x75
     740:	00657361 	rsbeq	r7, r5, r1, ror #6
     744:	5f617369 	svcpl	0x00617369
     748:	5f746962 	svcpl	0x00746962
     74c:	766d7261 	strbtvc	r7, [sp], -r1, ror #4
     750:	00325f38 	eorseq	r5, r2, r8, lsr pc
     754:	47524154 			; <UNDEFINED> instruction: 0x47524154
     758:	435f5445 	cmpmi	pc, #1157627904	; 0x45000000
     75c:	635f5550 	cmpvs	pc, #80, 10	; 0x14000000
     760:	6574726f 	ldrbvs	r7, [r4, #-623]!	; 0xfffffd91
     764:	37316178 			; <UNDEFINED> instruction: 0x37316178
     768:	74726f63 	ldrbtvc	r6, [r2], #-3939	; 0xfffff09d
     76c:	37617865 	strbcc	r7, [r1, -r5, ror #16]!
     770:	52415400 	subpl	r5, r1, #0, 8
     774:	5f544547 	svcpl	0x00544547
     778:	5f555043 	svcpl	0x00555043
     77c:	376d7261 	strbcc	r7, [sp, -r1, ror #4]!
     780:	00743031 	rsbseq	r3, r4, r1, lsr r0
     784:	676f7270 			; <UNDEFINED> instruction: 0x676f7270
     788:	5f6d6172 	svcpl	0x006d6172
     78c:	6f766e69 	svcvs	0x00766e69
     790:	69746163 	ldmdbvs	r4!, {r0, r1, r5, r6, r8, sp, lr}^
     794:	6e5f6e6f 	cdpvs	14, 5, cr6, cr15, cr15, {3}
     798:	00656d61 	rsbeq	r6, r5, r1, ror #26
     79c:	5f6d7261 	svcpl	0x006d7261
     7a0:	68637261 	stmdavs	r3!, {r0, r5, r6, r9, ip, sp, lr}^
     7a4:	6d77695f 			; <UNDEFINED> instruction: 0x6d77695f
     7a8:	3274786d 	rsbscc	r7, r4, #7143424	; 0x6d0000
     7ac:	69665f00 	stmdbvs	r6!, {r8, r9, sl, fp, ip, lr}^
     7b0:	6f6e656c 	svcvs	0x006e656c
     7b4:	61736900 	cmnvs	r3, r0, lsl #18
     7b8:	6d756e5f 	ldclvs	14, cr6, [r5, #-380]!	; 0xfffffe84
     7bc:	7469625f 	strbtvc	r6, [r9], #-607	; 0xfffffda1
     7c0:	41540073 	cmpmi	r4, r3, ror r0
     7c4:	54454752 	strbpl	r4, [r5], #-1874	; 0xfffff8ae
     7c8:	5550435f 	ldrbpl	r4, [r0, #-863]	; 0xfffffca1
     7cc:	726f635f 	rsbvc	r6, pc, #2080374785	; 0x7c000001
     7d0:	6d786574 	cfldr64vs	mvdx6, [r8, #-464]!	; 0xfffffe30
     7d4:	756c7030 	strbvc	r7, [ip, #-48]!	; 0xffffffd0
     7d8:	616d7373 	smcvs	55091	; 0xd733
     7dc:	756d6c6c 	strbvc	r6, [sp, #-3180]!	; 0xfffff394
     7e0:	7069746c 	rsbvc	r7, r9, ip, ror #8
     7e4:	5400796c 	strpl	r7, [r0], #-2412	; 0xfffff694
     7e8:	45475241 	strbmi	r5, [r7, #-577]	; 0xfffffdbf
     7ec:	50435f54 	subpl	r5, r3, r4, asr pc
     7f0:	78655f55 	stmdavc	r5!, {r0, r2, r4, r6, r8, r9, sl, fp, ip, lr}^
     7f4:	736f6e79 	cmnvc	pc, #1936	; 0x790
     7f8:	5400316d 	strpl	r3, [r0], #-365	; 0xfffffe93
     7fc:	45475241 	strbmi	r5, [r7, #-577]	; 0xfffffdbf
     800:	50435f54 	subpl	r5, r3, r4, asr pc
     804:	6f635f55 	svcvs	0x00635f55
     808:	78657472 	stmdavc	r5!, {r1, r4, r5, r6, sl, ip, sp, lr}^
     80c:	00323572 	eorseq	r3, r2, r2, ror r5
     810:	5f617369 	svcpl	0x00617369
     814:	5f746962 	svcpl	0x00746962
     818:	76696474 			; <UNDEFINED> instruction: 0x76696474
     81c:	79735f00 	ldmdbvc	r3!, {r8, r9, sl, fp, ip, lr}^
     820:	656e5f73 	strbvs	r5, [lr, #-3955]!	; 0xfffff08d
     824:	70007272 	andvc	r7, r0, r2, ror r2
     828:	65666572 	strbvs	r6, [r6, #-1394]!	; 0xfffffa8e
     82c:	656e5f72 	strbvs	r5, [lr, #-3954]!	; 0xfffff08e
     830:	665f6e6f 	ldrbvs	r6, [pc], -pc, ror #28
     834:	365f726f 	ldrbcc	r7, [pc], -pc, ror #4
     838:	74696234 	strbtvc	r6, [r9], #-564	; 0xfffffdcc
     83c:	73690073 	cmnvc	r9, #115, 0	; 0x73
     840:	69625f61 	stmdbvs	r2!, {r0, r5, r6, r8, r9, sl, fp, ip, lr}^
     844:	70665f74 	rsbvc	r5, r6, r4, ror pc
     848:	6d663631 	stclvs	6, cr3, [r6, #-196]!	; 0xffffff3c
     84c:	4154006c 	cmpmi	r4, ip, rrx
     850:	54454752 	strbpl	r4, [r5], #-1874	; 0xfffff8ae
     854:	5550435f 	ldrbpl	r4, [r0, #-863]	; 0xfffffca1
     858:	726f635f 	rsbvc	r6, pc, #2080374785	; 0x7c000001
     85c:	61786574 	cmnvs	r8, r4, ror r5
     860:	73003233 	movwvc	r3, #563	; 0x233
     864:	5f657a69 	svcpl	0x00657a69
     868:	41540074 	cmpmi	r4, r4, ror r0
     86c:	54454752 	strbpl	r4, [r5], #-1874	; 0xfffff8ae
     870:	5550435f 	ldrbpl	r4, [r0, #-863]	; 0xfffffca1
     874:	6d72615f 	ldfvse	f6, [r2, #-380]!	; 0xfffffe84
     878:	00303236 	eorseq	r3, r0, r6, lsr r2
     87c:	72616d5f 	rsbvc	r6, r1, #6080	; 0x17c0
     880:	7372656b 	cmnvc	r2, #448790528	; 0x1ac00000
     884:	736e7500 	cmnvc	lr, #0, 10
     888:	76636570 			; <UNDEFINED> instruction: 0x76636570
     88c:	7274735f 	rsbsvc	r7, r4, #2080374785	; 0x7c000001
     890:	73676e69 	cmnvc	r7, #1680	; 0x690
     894:	4f495f00 	svcmi	0x00495f00
     898:	6165725f 	cmnvs	r5, pc, asr r2
     89c:	61625f64 	cmnvs	r2, r4, ror #30
     8a0:	5f006573 	svcpl	0x00006573
     8a4:	5f727563 	svcpl	0x00727563
     8a8:	756c6f63 	strbvc	r6, [ip, #-3939]!	; 0xfffff09d
     8ac:	54006e6d 	strpl	r6, [r0], #-3693	; 0xfffff193
     8b0:	45475241 	strbmi	r5, [r7, #-577]	; 0xfffffdbf
     8b4:	50435f54 	subpl	r5, r3, r4, asr pc
     8b8:	72615f55 	rsbvc	r5, r1, #340	; 0x154
     8bc:	3230316d 	eorscc	r3, r0, #1073741851	; 0x4000001b
     8c0:	736a6536 	cmnvc	sl, #226492416	; 0xd800000
     8c4:	52415400 	subpl	r5, r1, #0, 8
     8c8:	5f544547 	svcpl	0x00544547
     8cc:	5f555043 	svcpl	0x00555043
     8d0:	74726f63 	ldrbtvc	r6, [r2], #-3939	; 0xfffff09d
     8d4:	37617865 	strbcc	r7, [r1, -r5, ror #16]!
     8d8:	726f6335 	rsbvc	r6, pc, #-738197504	; 0xd4000000
     8dc:	61786574 	cmnvs	r8, r4, ror r5
     8e0:	61003535 	tstvs	r0, r5, lsr r5
     8e4:	615f6d72 	cmpvs	pc, r2, ror sp	; <UNPREDICTABLE>
     8e8:	33686372 	cmncc	r8, #-939524095	; 0xc8000001
     8ec:	4154006d 	cmpmi	r4, sp, rrx
     8f0:	54454752 	strbpl	r4, [r5], #-1874	; 0xfffff8ae
     8f4:	5550435f 	ldrbpl	r4, [r0, #-863]	; 0xfffffca1
     8f8:	3661665f 			; <UNDEFINED> instruction: 0x3661665f
     8fc:	65743630 	ldrbvs	r3, [r4, #-1584]!	; 0xfffff9d0
     900:	64747300 	ldrbtvs	r7, [r4], #-768	; 0xfffffd00
     904:	54006e69 	strpl	r6, [r0], #-3689	; 0xfffff197
     908:	45475241 	strbmi	r5, [r7, #-577]	; 0xfffffdbf
     90c:	50435f54 	subpl	r5, r3, r4, asr pc
     910:	72615f55 	rsbvc	r5, r1, #340	; 0x154
     914:	3632396d 	ldrtcc	r3, [r2], -sp, ror #18
     918:	00736a65 	rsbseq	r6, r3, r5, ror #20
     91c:	45534142 	ldrbmi	r4, [r3, #-322]	; 0xfffffebe
     920:	4352415f 	cmpmi	r2, #-1073741801	; 0xc0000017
     924:	54345f48 	ldrtpl	r5, [r4], #-3912	; 0xfffff0b8
     928:	61736900 	cmnvs	r3, r0, lsl #18
     92c:	7469625f 	strbtvc	r6, [r9], #-607	; 0xfffffda1
     930:	7972635f 	ldmdbvc	r2!, {r0, r1, r2, r3, r4, r6, r8, r9, sp, lr}^
     934:	006f7470 	rsbeq	r7, pc, r0, ror r4	; <UNPREDICTABLE>
     938:	5f6d7261 	svcpl	0x006d7261
     93c:	73676572 	cmnvc	r7, #478150656	; 0x1c800000
     940:	5f6e695f 	svcpl	0x006e695f
     944:	75716573 	ldrbvc	r6, [r1, #-1395]!	; 0xfffffa8d
     948:	65636e65 	strbvs	r6, [r3, #-3685]!	; 0xfffff19b
     94c:	53414200 	movtpl	r4, #4608	; 0x1200
     950:	52415f45 	subpl	r5, r1, #276	; 0x114
     954:	355f4843 	ldrbcc	r4, [pc, #-2115]	; 119 <_start-0x877ffee7>
     958:	5f004554 	svcpl	0x00004554
     95c:	6d5f4f49 	ldclvs	15, cr4, [pc, #-292]	; 840 <_start-0x877ff7c0>
     960:	656b7261 	strbvs	r7, [fp, #-609]!	; 0xfffffd9f
     964:	41540072 	cmpmi	r4, r2, ror r0
     968:	54454752 	strbpl	r4, [r5], #-1874	; 0xfffff8ae
     96c:	5550435f 	ldrbpl	r4, [r0, #-863]	; 0xfffffca1
     970:	3970655f 	ldmdbcc	r0!, {r0, r1, r2, r3, r4, r6, r8, sl, sp, lr}^
     974:	00323133 	eorseq	r3, r2, r3, lsr r1
     978:	5f617369 	svcpl	0x00617369
     97c:	74616566 	strbtvc	r6, [r1], #-1382	; 0xfffffa9a
     980:	00657275 	rsbeq	r7, r5, r5, ror r2
     984:	5f617369 	svcpl	0x00617369
     988:	5f746962 	svcpl	0x00746962
     98c:	6c616d73 	stclvs	13, cr6, [r1], #-460	; 0xfffffe34
     990:	6c756d6c 	ldclvs	13, cr6, [r5], #-432	; 0xfffffe50
     994:	6d726100 	ldfvse	f6, [r2, #-0]
     998:	6e616c5f 	mcrvs	12, 3, r6, cr1, cr15, {2}
     99c:	756f5f67 	strbvc	r5, [pc, #-3943]!	; fffffa3d <__bss_end+0x787fae05>
     9a0:	74757074 	ldrbtvc	r7, [r5], #-116	; 0xffffff8c
     9a4:	6a626f5f 	bvs	189c728 <_start-0x85f638d8>
     9a8:	5f746365 	svcpl	0x00746365
     9ac:	72747461 	rsbsvc	r7, r4, #1627389952	; 0x61000000
     9b0:	74756269 	ldrbtvc	r6, [r5], #-617	; 0xfffffd97
     9b4:	685f7365 	ldmdavs	pc, {r0, r2, r5, r6, r8, r9, ip, sp, lr}^	; <UNPREDICTABLE>
     9b8:	006b6f6f 	rsbeq	r6, fp, pc, ror #30
     9bc:	5f617369 	svcpl	0x00617369
     9c0:	5f746962 	svcpl	0x00746962
     9c4:	645f7066 	ldrbvs	r7, [pc], #-102	; 9cc <_start-0x877ff634>
     9c8:	41003233 	tstmi	r0, r3, lsr r2
     9cc:	4e5f4d52 	mrcmi	13, 2, r4, cr15, cr2, {2}
     9d0:	73690045 	cmnvc	r9, #69, 0	; 0x45
     9d4:	69625f61 	stmdbvs	r2!, {r0, r5, r6, r8, r9, sl, fp, ip, lr}^
     9d8:	65625f74 	strbvs	r5, [r2, #-3956]!	; 0xfffff08c
     9dc:	41540038 	cmpmi	r4, r8, lsr r0
     9e0:	54454752 	strbpl	r4, [r5], #-1874	; 0xfffff8ae
     9e4:	5550435f 	ldrbpl	r4, [r0, #-863]	; 0xfffffca1
     9e8:	6d72615f 	ldfvse	f6, [r2, #-380]!	; 0xfffffe84
     9ec:	36373131 			; <UNDEFINED> instruction: 0x36373131
     9f0:	00737a6a 	rsbseq	r7, r3, sl, ror #20
     9f4:	45534142 	ldrbmi	r4, [r3, #-322]	; 0xfffffebe
     9f8:	4352415f 	cmpmi	r2, #-1073741801	; 0xc0000017
     9fc:	45355f48 	ldrmi	r5, [r5, #-3912]!	; 0xfffff0b8
     a00:	61736900 	cmnvs	r3, r0, lsl #18
     a04:	7469625f 	strbtvc	r6, [r9], #-607	; 0xfffffda1
     a08:	6964615f 	stmdbvs	r4!, {r0, r1, r2, r3, r4, r6, r8, sp, lr}^
     a0c:	72700076 	rsbsvc	r0, r0, #118, 0	; 0x76
     a10:	7365636f 	cmnvc	r5, #-1140850687	; 0xbc000001
     a14:	5f726f73 	svcpl	0x00726f73
     a18:	65707974 	ldrbvs	r7, [r0, #-2420]!	; 0xfffff68c
     a1c:	6c6c6100 	stfvse	f6, [ip], #-0
     a20:	7570665f 	ldrbvc	r6, [r0, #-1631]!	; 0xfffff9a1
     a24:	72610073 	rsbvc	r0, r1, #115, 0	; 0x73
     a28:	63705f6d 	cmnvs	r0, #436	; 0x1b4
     a2c:	6d5f0073 	ldclvs	0, cr0, [pc, #-460]	; 868 <_start-0x877ff798>
     a30:	0065646f 	rsbeq	r6, r5, pc, ror #8
     a34:	5f6d7261 	svcpl	0x006d7261
     a38:	68637261 	stmdavs	r3!, {r0, r5, r6, r9, ip, sp, lr}^
     a3c:	54007434 	strpl	r7, [r0], #-1076	; 0xfffffbcc
     a40:	45475241 	strbmi	r5, [r7, #-577]	; 0xfffffdbf
     a44:	50435f54 	subpl	r5, r3, r4, asr pc
     a48:	6f635f55 	svcvs	0x00635f55
     a4c:	78657472 	stmdavc	r5!, {r1, r4, r5, r6, sl, ip, sp, lr}^
     a50:	63353161 	teqvs	r5, #1073741848	; 0x40000018
     a54:	6574726f 	ldrbvs	r7, [r4, #-623]!	; 0xfffffd91
     a58:	00376178 	eorseq	r6, r7, r8, ror r1
     a5c:	5f6d7261 	svcpl	0x006d7261
     a60:	656e7574 	strbvs	r7, [lr, #-1396]!	; 0xfffffa8c
     a64:	7562775f 	strbvc	r7, [r2, #-1887]!	; 0xfffff8a1
     a68:	74680066 	strbtvc	r0, [r8], #-102	; 0xffffff9a
     a6c:	685f6261 	ldmdavs	pc, {r0, r5, r6, r9, sp, lr}^	; <UNPREDICTABLE>
     a70:	00687361 	rsbeq	r7, r8, r1, ror #6
     a74:	5f617369 	svcpl	0x00617369
     a78:	5f746962 	svcpl	0x00746962
     a7c:	72697571 	rsbvc	r7, r9, #473956352	; 0x1c400000
     a80:	6f6e5f6b 	svcvs	0x006e5f6b
     a84:	6c6f765f 	stclvs	6, cr7, [pc], #-380	; 910 <_start-0x877ff6f0>
     a88:	6c697461 	cfstrdvs	mvd7, [r9], #-388	; 0xfffffe7c
     a8c:	65635f65 	strbvs	r5, [r3, #-3941]!	; 0xfffff09b
     a90:	4f495f00 	svcmi	0x00495f00
     a94:	6165725f 	cmnvs	r5, pc, asr r2
     a98:	74705f64 	ldrbtvc	r5, [r0], #-3940	; 0xfffff09c
     a9c:	41540072 	cmpmi	r4, r2, ror r0
     aa0:	54454752 	strbpl	r4, [r5], #-1874	; 0xfffff8ae
     aa4:	5550435f 	ldrbpl	r4, [r0, #-863]	; 0xfffffca1
     aa8:	726f635f 	rsbvc	r6, pc, #2080374785	; 0x7c000001
     aac:	6d786574 	cfldr64vs	mvdx6, [r8, #-464]!	; 0xfffffe30
     ab0:	41540030 	cmpmi	r4, r0, lsr r0
     ab4:	54454752 	strbpl	r4, [r5], #-1874	; 0xfffff8ae
     ab8:	5550435f 	ldrbpl	r4, [r0, #-863]	; 0xfffffca1
     abc:	726f635f 	rsbvc	r6, pc, #2080374785	; 0x7c000001
     ac0:	6d786574 	cfldr64vs	mvdx6, [r8, #-464]!	; 0xfffffe30
     ac4:	41540031 	cmpmi	r4, r1, lsr r0
     ac8:	54454752 	strbpl	r4, [r5], #-1874	; 0xfffff8ae
     acc:	5550435f 	ldrbpl	r4, [r0, #-863]	; 0xfffffca1
     ad0:	726f635f 	rsbvc	r6, pc, #2080374785	; 0x7c000001
     ad4:	6d786574 	cfldr64vs	mvdx6, [r8, #-464]!	; 0xfffffe30
     ad8:	73690033 	cmnvc	r9, #51, 0	; 0x33
     adc:	69625f61 	stmdbvs	r2!, {r0, r5, r6, r8, r9, sl, fp, ip, lr}^
     ae0:	72615f74 	rsbvc	r5, r1, #116, 30	; 0x1d0
     ae4:	5f38766d 	svcpl	0x0038766d
     ae8:	72610031 	rsbvc	r0, r1, #49, 0	; 0x31
     aec:	72615f6d 	rsbvc	r5, r1, #436	; 0x1b4
     af0:	6e5f6863 	cdpvs	8, 5, cr6, cr15, cr3, {3}
     af4:	00656d61 	rsbeq	r6, r5, r1, ror #26
     af8:	5f617369 	svcpl	0x00617369
     afc:	5f746962 	svcpl	0x00746962
     b00:	766d7261 	strbtvc	r7, [sp], -r1, ror #4
     b04:	00335f38 	eorseq	r5, r3, r8, lsr pc
     b08:	5f617369 	svcpl	0x00617369
     b0c:	5f746962 	svcpl	0x00746962
     b10:	766d7261 	strbtvc	r7, [sp], -r1, ror #4
     b14:	00345f38 	eorseq	r5, r4, r8, lsr pc
     b18:	47524154 			; <UNDEFINED> instruction: 0x47524154
     b1c:	435f5445 	cmpmi	pc, #1157627904	; 0x45000000
     b20:	635f5550 	cmpvs	pc, #80, 10	; 0x14000000
     b24:	6574726f 	ldrbvs	r7, [r4, #-623]!	; 0xfffffd91
     b28:	33356178 	teqcc	r5, #30
     b2c:	52415400 	subpl	r5, r1, #0, 8
     b30:	5f544547 	svcpl	0x00544547
     b34:	5f555043 	svcpl	0x00555043
     b38:	74726f63 	ldrbtvc	r6, [r2], #-3939	; 0xfffff09d
     b3c:	35617865 	strbcc	r7, [r1, #-2149]!	; 0xfffff79b
     b40:	41540035 	cmpmi	r4, r5, lsr r0
     b44:	54454752 	strbpl	r4, [r5], #-1874	; 0xfffff8ae
     b48:	5550435f 	ldrbpl	r4, [r0, #-863]	; 0xfffffca1
     b4c:	6d72615f 	ldfvse	f6, [r2, #-380]!	; 0xfffffe84
     b50:	696d6437 	stmdbvs	sp!, {r0, r1, r2, r4, r5, sl, sp, lr}^
     b54:	52415400 	subpl	r5, r1, #0, 8
     b58:	5f544547 	svcpl	0x00544547
     b5c:	5f555043 	svcpl	0x00555043
     b60:	6f63706d 	svcvs	0x0063706d
     b64:	69006572 	stmdbvs	r0, {r1, r4, r5, r6, r8, sl, sp, lr}
     b68:	625f6173 	subsvs	r6, pc, #-1073741796	; 0xc000001c
     b6c:	765f7469 	ldrbvc	r7, [pc], -r9, ror #8
     b70:	32767066 	rsbscc	r7, r6, #102, 0	; 0x66
     b74:	61736900 	cmnvs	r3, r0, lsl #18
     b78:	7469625f 	strbtvc	r6, [r9], #-607	; 0xfffffda1
     b7c:	6d72615f 	ldfvse	f6, [r2, #-380]!	; 0xfffffe84
     b80:	006d3376 	rsbeq	r3, sp, r6, ror r3
     b84:	5f6d7261 	svcpl	0x006d7261
     b88:	68637261 	stmdavs	r3!, {r0, r5, r6, r9, ip, sp, lr}^
     b8c:	746f6e5f 	strbtvc	r6, [pc], #-3679	; b94 <_start-0x877ff46c>
     b90:	7261006d 	rsbvc	r0, r1, #109, 0	; 0x6d
     b94:	72615f6d 	rsbvc	r5, r1, #436	; 0x1b4
     b98:	65356863 	ldrvs	r6, [r5, #-2147]!	; 0xfffff79d
     b9c:	52415400 	subpl	r5, r1, #0, 8
     ba0:	5f544547 	svcpl	0x00544547
     ba4:	5f555043 	svcpl	0x00555043
     ba8:	316d7261 	cmncc	sp, r1, ror #4
     bac:	65303230 	ldrvs	r3, [r0, #-560]!	; 0xfffffdd0
     bb0:	53414200 	movtpl	r4, #4608	; 0x1200
     bb4:	52415f45 	subpl	r5, r1, #276	; 0x114
     bb8:	365f4843 	ldrbcc	r4, [pc], -r3, asr #16
     bbc:	4154004a 	cmpmi	r4, sl, asr #32
     bc0:	54454752 	strbpl	r4, [r5], #-1874	; 0xfffff8ae
     bc4:	5550435f 	ldrbpl	r4, [r0, #-863]	; 0xfffffca1
     bc8:	6d72615f 	ldfvse	f6, [r2, #-380]!	; 0xfffffe84
     bcc:	65383639 	ldrvs	r3, [r8, #-1593]!	; 0xfffff9c7
     bd0:	41540073 	cmpmi	r4, r3, ror r0
     bd4:	54454752 	strbpl	r4, [r5], #-1874	; 0xfffff8ae
     bd8:	5550435f 	ldrbpl	r4, [r0, #-863]	; 0xfffffca1
     bdc:	6d72615f 	ldfvse	f6, [r2, #-380]!	; 0xfffffe84
     be0:	74303437 	ldrtvc	r3, [r0], #-1079	; 0xfffffbc9
     be4:	53414200 	movtpl	r4, #4608	; 0x1200
     be8:	52415f45 	subpl	r5, r1, #276	; 0x114
     bec:	365f4843 	ldrbcc	r4, [pc], -r3, asr #16
     bf0:	7369004d 	cmnvc	r9, #77, 0	; 0x4d
     bf4:	69625f61 	stmdbvs	r2!, {r0, r5, r6, r8, r9, sl, fp, ip, lr}^
     bf8:	77695f74 			; <UNDEFINED> instruction: 0x77695f74
     bfc:	74786d6d 	ldrbtvc	r6, [r8], #-3437	; 0xfffff293
     c00:	52415400 	subpl	r5, r1, #0, 8
     c04:	5f544547 	svcpl	0x00544547
     c08:	5f555043 	svcpl	0x00555043
     c0c:	376d7261 	strbcc	r7, [sp, -r1, ror #4]!
     c10:	54003030 	strpl	r3, [r0], #-48	; 0xffffffd0
     c14:	45475241 	strbmi	r5, [r7, #-577]	; 0xfffffdbf
     c18:	50435f54 	subpl	r5, r3, r4, asr pc
     c1c:	72615f55 	rsbvc	r5, r1, #340	; 0x154
     c20:	3331316d 	teqcc	r1, #1073741851	; 0x4000001b
     c24:	73666a36 	cmnvc	r6, #221184	; 0x36000
     c28:	4d524100 	ldfmie	f4, [r2, #-0]
     c2c:	00534c5f 	subseq	r4, r3, pc, asr ip
     c30:	47524154 			; <UNDEFINED> instruction: 0x47524154
     c34:	435f5445 	cmpmi	pc, #1157627904	; 0x45000000
     c38:	615f5550 	cmpvs	pc, r0, asr r5	; <UNPREDICTABLE>
     c3c:	30316d72 	eorscc	r6, r1, r2, ror sp
     c40:	00743032 	rsbseq	r3, r4, r2, lsr r0
     c44:	5f4f495f 	svcpl	0x004f495f
     c48:	74697277 	strbtvc	r7, [r9], #-631	; 0xfffffd89
     c4c:	61625f65 	cmnvs	r2, r5, ror #30
     c50:	42006573 	andmi	r6, r0, #482344960	; 0x1cc00000
     c54:	5f455341 	svcpl	0x00455341
     c58:	48435241 	stmdami	r3, {r0, r6, r9, ip, lr}^
     c5c:	005a365f 	subseq	r3, sl, pc, asr r6
     c60:	5f4d5241 	svcpl	0x004d5241
     c64:	5f534350 	svcpl	0x00534350
     c68:	43504141 	cmpmi	r0, #1073741840	; 0x40000010
     c6c:	46565f53 	usaxmi	r5, r6, r3
     c70:	41540050 	cmpmi	r4, r0, asr r0
     c74:	54454752 	strbpl	r4, [r5], #-1874	; 0xfffff8ae
     c78:	5550435f 	ldrbpl	r4, [r0, #-863]	; 0xfffffca1
     c7c:	6d77695f 			; <UNDEFINED> instruction: 0x6d77695f
     c80:	3274786d 	rsbscc	r7, r4, #7143424	; 0x6d0000
     c84:	61736900 	cmnvs	r3, r0, lsl #18
     c88:	7469625f 	strbtvc	r6, [r9], #-607	; 0xfffffda1
     c8c:	6f656e5f 	svcvs	0x00656e5f
     c90:	6f6c006e 	svcvs	0x006c006e
     c94:	6c20676e 	stcvs	7, cr6, [r0], #-440	; 0xfffffe48
     c98:	20676e6f 	rsbcs	r6, r7, pc, ror #28
     c9c:	00746e69 	rsbseq	r6, r4, r9, ror #28
     ca0:	20554e47 	subscs	r4, r5, r7, asr #28
     ca4:	20373143 	eorscs	r3, r7, r3, asr #2
     ca8:	2e332e38 	mrccs	14, 1, r2, cr3, cr8, {1}
     cac:	6d2d2030 	stcvs	0, cr2, [sp, #-192]!	; 0xffffff40
     cb0:	3d757063 	ldclcc	0, cr7, [r5, #-396]!	; 0xfffffe74
     cb4:	74726f63 	ldrbtvc	r6, [r2], #-3939	; 0xfffff09d
     cb8:	612d7865 			; <UNDEFINED> instruction: 0x612d7865
     cbc:	6d2d2039 	stcvs	0, cr2, [sp, #-228]!	; 0xffffff1c
     cc0:	616f6c66 	cmnvs	pc, r6, ror #24
     cc4:	62612d74 	rsbvs	r2, r1, #116, 26	; 0x1d00
     cc8:	61683d69 	cmnvs	r8, r9, ror #26
     ccc:	2d206472 	cfstrscs	mvf6, [r0, #-456]!	; 0xfffffe38
     cd0:	7570666d 	ldrbvc	r6, [r0, #-1645]!	; 0xfffff993
     cd4:	6f656e3d 	svcvs	0x00656e3d
     cd8:	66762d6e 	ldrbtvs	r2, [r6], -lr, ror #26
     cdc:	20347670 	eorscs	r7, r4, r0, ror r6
     ce0:	6c746d2d 	ldclvs	13, cr6, [r4], #-180	; 0xffffff4c
     ce4:	69642d73 	stmdbvs	r4!, {r0, r1, r4, r5, r6, r8, sl, fp, sp}^
     ce8:	63656c61 	cmnvs	r5, #24832	; 0x6100
     cec:	6e673d74 	mcrvs	13, 3, r3, cr7, cr4, {3}
     cf0:	6d2d2075 	stcvs	0, cr2, [sp, #-468]!	; 0xfffffe2c
     cf4:	206d7261 	rsbcs	r7, sp, r1, ror #4
     cf8:	72616d2d 	rsbvc	r6, r1, #2880	; 0xb40
     cfc:	613d6863 	teqvs	sp, r3, ror #16
     d00:	37766d72 			; <UNDEFINED> instruction: 0x37766d72
     d04:	6d2b612d 	stfvss	f6, [fp, #-180]!	; 0xffffff4c
     d08:	65732b70 	ldrbvs	r2, [r3, #-2928]!	; 0xfffff490
     d0c:	656e2b63 	strbvs	r2, [lr, #-2915]!	; 0xfffff49d
     d10:	762d6e6f 	strtvc	r6, [sp], -pc, ror #28
     d14:	34767066 	ldrbtcc	r7, [r6], #-102	; 0xffffff9a
     d18:	20672d20 	rsbcs	r2, r7, r0, lsr #26
     d1c:	2d20672d 	stccs	7, cr6, [r0, #-180]!	; 0xffffff4c
     d20:	672d2067 	strvs	r2, [sp, -r7, rrx]!
     d24:	20672d20 	rsbcs	r2, r7, r0, lsr #26
     d28:	20324f2d 	eorscs	r4, r2, sp, lsr #30
     d2c:	20734f2d 	rsbscs	r4, r3, sp, lsr #30
     d30:	20324f2d 	eorscs	r4, r2, sp, lsr #30
     d34:	20324f2d 	eorscs	r4, r2, sp, lsr #30
     d38:	20734f2d 	rsbscs	r4, r3, sp, lsr #30
     d3c:	7562662d 	strbvc	r6, [r2, #-1581]!	; 0xfffff9d3
     d40:	69646c69 	stmdbvs	r4!, {r0, r3, r5, r6, sl, fp, sp, lr}^
     d44:	6c2d676e 	stcvs	7, cr6, [sp], #-440	; 0xfffffe48
     d48:	63676269 	cmnvs	r7, #-1879048186	; 0x90000006
     d4c:	662d2063 	strtvs	r2, [sp], -r3, rrx
     d50:	732d6f6e 			; <UNDEFINED> instruction: 0x732d6f6e
     d54:	6b636174 	blvs	18d932c <_start-0x85f26cd4>
     d58:	6f72702d 	svcvs	0x0072702d
     d5c:	74636574 	strbtvc	r6, [r3], #-1396	; 0xfffffa8c
     d60:	2d20726f 	sfmcs	f7, 4, [r0, #-444]!	; 0xfffffe44
     d64:	43495066 	movtmi	r5, #36966	; 0x9066
     d68:	6e662d20 	cdpvs	13, 6, cr2, cr6, cr0, {1}
     d6c:	6e692d6f 	cdpvs	13, 6, cr2, cr9, cr15, {3}
     d70:	656e696c 	strbvs	r6, [lr, #-2412]!	; 0xfffff694
     d74:	65662d20 	strbvs	r2, [r6, #-3360]!	; 0xfffff2e0
     d78:	70656378 	rsbvc	r6, r5, r8, ror r3
     d7c:	6e6f6974 			; <UNDEFINED> instruction: 0x6e6f6974
     d80:	662d2073 			; <UNDEFINED> instruction: 0x662d2073
     d84:	69736976 	ldmdbvs	r3!, {r1, r2, r4, r5, r6, r8, fp, sp, lr}^
     d88:	696c6962 	stmdbvs	ip!, {r1, r5, r6, r8, fp, sp, lr}^
     d8c:	683d7974 	ldmdavs	sp!, {r2, r4, r5, r6, r8, fp, ip, sp, lr}
     d90:	65646469 	strbvs	r6, [r4, #-1129]!	; 0xfffffb97
     d94:	7261006e 	rsbvc	r0, r1, #110, 0	; 0x6e
     d98:	70665f6d 	rsbvc	r5, r6, sp, ror #30
     d9c:	74615f75 	strbtvc	r5, [r1], #-3957	; 0xfffff08b
     da0:	69007274 	stmdbvs	r0, {r2, r4, r5, r6, r9, ip, sp, lr}
     da4:	625f6173 	subsvs	r6, pc, #-1073741796	; 0xc000001c
     da8:	615f7469 	cmpvs	pc, r9, ror #8
     dac:	37766d72 			; <UNDEFINED> instruction: 0x37766d72
     db0:	54006d65 	strpl	r6, [r0], #-3429	; 0xfffff29b
     db4:	45475241 	strbmi	r5, [r7, #-577]	; 0xfffffdbf
     db8:	50435f54 	subpl	r5, r3, r4, asr pc
     dbc:	61665f55 	cmnvs	r6, r5, asr pc
     dc0:	74363236 	ldrtvc	r3, [r6], #-566	; 0xfffffdca
     dc4:	41540065 	cmpmi	r4, r5, rrx
     dc8:	54454752 	strbpl	r4, [r5], #-1874	; 0xfffff8ae
     dcc:	5550435f 	ldrbpl	r4, [r0, #-863]	; 0xfffffca1
     dd0:	72616d5f 	rsbvc	r6, r1, #6080	; 0x17c0
     dd4:	6c6c6576 	cfstr64vs	mvdx6, [ip], #-472	; 0xfffffe28
     dd8:	346a705f 	strbtcc	r7, [sl], #-95	; 0xffffffa1
     ddc:	61746800 	cmnvs	r4, r0, lsl #16
     de0:	61685f62 	cmnvs	r8, r2, ror #30
     de4:	705f6873 	subsvc	r6, pc, r3, ror r8	; <UNPREDICTABLE>
     de8:	746e696f 	strbtvc	r6, [lr], #-2415	; 0xfffff691
     dec:	54007265 	strpl	r7, [r0], #-613	; 0xfffffd9b
     df0:	45475241 	strbmi	r5, [r7, #-577]	; 0xfffffdbf
     df4:	50435f54 	subpl	r5, r3, r4, asr pc
     df8:	6f635f55 	svcvs	0x00635f55
     dfc:	78657472 	stmdavc	r5!, {r1, r4, r5, r6, sl, ip, sp, lr}^
     e00:	00353361 	eorseq	r3, r5, r1, ror #6
     e04:	5f6d7261 	svcpl	0x006d7261
     e08:	656e7574 	strbvs	r7, [lr, #-1396]!	; 0xfffffa8c
     e0c:	726f635f 	rsbvc	r6, pc, #2080374785	; 0x7c000001
     e10:	5f786574 	svcpl	0x00786574
     e14:	54003961 	strpl	r3, [r0], #-2401	; 0xfffff69f
     e18:	45475241 	strbmi	r5, [r7, #-577]	; 0xfffffdbf
     e1c:	50435f54 	subpl	r5, r3, r4, asr pc
     e20:	6f635f55 	svcvs	0x00635f55
     e24:	78657472 	stmdavc	r5!, {r1, r4, r5, r6, sl, ip, sp, lr}^
     e28:	63323761 	teqvs	r2, #25427968	; 0x1840000
     e2c:	6574726f 	ldrbvs	r7, [r4, #-623]!	; 0xfffffd91
     e30:	33356178 	teqcc	r5, #30
     e34:	61736900 	cmnvs	r3, r0, lsl #18
     e38:	7469625f 	strbtvc	r6, [r9], #-607	; 0xfffffda1
     e3c:	7568745f 	strbvc	r7, [r8, #-1119]!	; 0xfffffba1
     e40:	0032626d 	eorseq	r6, r2, sp, ror #4
     e44:	6974706f 	ldmdbvs	r4!, {r0, r1, r2, r3, r5, r6, ip, sp, lr}^
     e48:	4200646e 	andmi	r6, r0, #1845493760	; 0x6e000000
     e4c:	5f455341 	svcpl	0x00455341
     e50:	48435241 	stmdami	r3, {r0, r6, r9, ip, lr}^
     e54:	0041375f 	subeq	r3, r1, pc, asr r7
     e58:	47524154 			; <UNDEFINED> instruction: 0x47524154
     e5c:	435f5445 	cmpmi	pc, #1157627904	; 0x45000000
     e60:	615f5550 	cmpvs	pc, r0, asr r5	; <UNPREDICTABLE>
     e64:	31376d72 	teqcc	r7, r2, ror sp
     e68:	69006330 	stmdbvs	r0, {r4, r5, r8, r9, sp, lr}
     e6c:	625f6173 	subsvs	r6, pc, #-1073741796	; 0xc000001c
     e70:	645f7469 	ldrbvs	r7, [pc], #-1129	; e78 <_start-0x877ff188>
     e74:	7270746f 	rsbsvc	r7, r0, #1862270976	; 0x6f000000
     e78:	4200646f 	andmi	r6, r0, #1862270976	; 0x6f000000
     e7c:	5f455341 	svcpl	0x00455341
     e80:	48435241 	stmdami	r3, {r0, r6, r9, ip, lr}^
     e84:	6100305f 	qaddvs	r3, pc, r0	; <UNPREDICTABLE>
     e88:	665f6d72 			; <UNDEFINED> instruction: 0x665f6d72
     e8c:	5f363170 	svcpl	0x00363170
     e90:	65707974 	ldrbvs	r7, [r0, #-2420]!	; 0xfffff68c
     e94:	646f6e5f 	strbtvs	r6, [pc], #-3679	; e9c <_start-0x877ff164>
     e98:	52410065 	subpl	r0, r1, #101, 0	; 0x65
     e9c:	494d5f4d 	stmdbmi	sp, {r0, r2, r3, r6, r8, r9, sl, fp, ip, lr}^
     ea0:	6d726100 	ldfvse	f6, [r2, #-0]
     ea4:	6372615f 	cmnvs	r2, #-1073741801	; 0xc0000017
     ea8:	006b3668 	rsbeq	r3, fp, r8, ror #12
     eac:	5f6d7261 	svcpl	0x006d7261
     eb0:	68637261 	stmdavs	r3!, {r0, r5, r6, r9, ip, sp, lr}^
     eb4:	42006d36 	andmi	r6, r0, #3456	; 0xd80
     eb8:	5f455341 	svcpl	0x00455341
     ebc:	48435241 	stmdami	r3, {r0, r6, r9, ip, lr}^
     ec0:	4200345f 	andmi	r3, r0, #1593835520	; 0x5f000000
     ec4:	5f455341 	svcpl	0x00455341
     ec8:	48435241 	stmdami	r3, {r0, r6, r9, ip, lr}^
     ecc:	0052375f 	subseq	r3, r2, pc, asr r7
     ed0:	6f705f5f 	svcvs	0x00705f5f
     ed4:	756f6370 	strbvc	r6, [pc, #-880]!	; b6c <_start-0x877ff494>
     ed8:	745f746e 	ldrbvc	r7, [pc], #-1134	; ee0 <_start-0x877ff120>
     edc:	5f006261 	svcpl	0x00006261
     ee0:	6175715f 	cmnvs	r5, pc, asr r1
     ee4:	00745f64 	rsbseq	r5, r4, r4, ror #30
     ee8:	6572665f 	ldrbvs	r6, [r2, #-1631]!	; 0xfffff9a1
     eec:	73657265 	cmnvc	r5, #1342177286	; 0x50000006
     ef0:	6675625f 			; <UNDEFINED> instruction: 0x6675625f
     ef4:	61746800 	cmnvs	r4, r0, lsl #16
     ef8:	71655f62 	cmnvc	r5, r2, ror #30
     efc:	705f5f00 	subsvc	r5, pc, r0, lsl #30
     f00:	00356461 	eorseq	r6, r5, r1, ror #8
     f04:	47524154 			; <UNDEFINED> instruction: 0x47524154
     f08:	435f5445 	cmpmi	pc, #1157627904	; 0x45000000
     f0c:	635f5550 	cmpvs	pc, #80, 10	; 0x14000000
     f10:	6574726f 	ldrbvs	r7, [r4, #-623]!	; 0xfffffd91
     f14:	33376178 	teqcc	r7, #30
     f18:	52415400 	subpl	r5, r1, #0, 8
     f1c:	5f544547 	svcpl	0x00544547
     f20:	5f555043 	svcpl	0x00555043
     f24:	656e6567 	strbvs	r6, [lr, #-1383]!	; 0xfffffa99
     f28:	76636972 			; <UNDEFINED> instruction: 0x76636972
     f2c:	69006137 	stmdbvs	r0, {r0, r1, r2, r4, r5, r8, sp, lr}
     f30:	625f6173 	subsvs	r6, pc, #-1073741796	; 0xc000001c
     f34:	615f7469 	cmpvs	pc, r9, ror #8
     f38:	35766d72 	ldrbcc	r6, [r6, #-3442]!	; 0xfffff28e
     f3c:	72610065 	rsbvc	r0, r1, #101, 0	; 0x65
     f40:	72615f6d 	rsbvc	r5, r1, #436	; 0x1b4
     f44:	6e5f6863 	cdpvs	8, 5, cr6, cr15, cr3, {3}
     f48:	6f765f6f 	svcvs	0x00765f6f
     f4c:	6974616c 	ldmdbvs	r4!, {r2, r3, r5, r6, r8, sp, lr}^
     f50:	635f656c 	cmpvs	pc, #108, 10	; 0x1b000000
     f54:	41420065 	cmpmi	r2, r5, rrx
     f58:	415f4553 	cmpmi	pc, r3, asr r5	; <UNPREDICTABLE>
     f5c:	5f484352 	svcpl	0x00484352
     f60:	54004138 	strpl	r4, [r0], #-312	; 0xfffffec8
     f64:	45475241 	strbmi	r5, [r7, #-577]	; 0xfffffdbf
     f68:	50435f54 	subpl	r5, r3, r4, asr pc
     f6c:	72615f55 	rsbvc	r5, r1, #340	; 0x154
     f70:	6474376d 	ldrbtvs	r3, [r4], #-1901	; 0xfffff893
     f74:	0073696d 	rsbseq	r6, r3, sp, ror #18
     f78:	47524154 			; <UNDEFINED> instruction: 0x47524154
     f7c:	435f5445 	cmpmi	pc, #1157627904	; 0x45000000
     f80:	615f5550 	cmpvs	pc, r0, asr r5	; <UNPREDICTABLE>
     f84:	30316d72 	eorscc	r6, r1, r2, ror sp
     f88:	00653232 	rsbeq	r3, r5, r2, lsr r2
     f8c:	6174765f 	cmnvs	r4, pc, asr r6
     f90:	5f656c62 	svcpl	0x00656c62
     f94:	7366666f 	cmnvc	r6, #116391936	; 0x6f00000
     f98:	6f007465 	svcvs	0x00007465
     f9c:	72657470 	rsbvc	r7, r5, #112, 8	; 0x70000000
     fa0:	41420072 	hvcmi	8194	; 0x2002
     fa4:	415f4553 	cmpmi	pc, r3, asr r5	; <UNPREDICTABLE>
     fa8:	5f484352 	svcpl	0x00484352
     fac:	42005435 	andmi	r5, r0, #889192448	; 0x35000000
     fb0:	5f455341 	svcpl	0x00455341
     fb4:	48435241 	stmdami	r3, {r0, r6, r9, ip, lr}^
     fb8:	0052385f 	subseq	r3, r2, pc, asr r8
     fbc:	47524154 			; <UNDEFINED> instruction: 0x47524154
     fc0:	435f5445 	cmpmi	pc, #1157627904	; 0x45000000
     fc4:	635f5550 	cmpvs	pc, #80, 10	; 0x14000000
     fc8:	6574726f 	ldrbvs	r7, [r4, #-623]!	; 0xfffffd91
     fcc:	33376178 	teqcc	r7, #30
     fd0:	74726f63 	ldrbtvc	r6, [r2], #-3939	; 0xfffff09d
     fd4:	33617865 	cmncc	r1, #6619136	; 0x650000
     fd8:	706f0035 	rsbvc	r0, pc, r5, lsr r0	; <UNPREDICTABLE>
     fdc:	67726174 			; <UNDEFINED> instruction: 0x67726174
     fe0:	4d524100 	ldfmie	f4, [r2, #-0]
     fe4:	00564e5f 	subseq	r4, r6, pc, asr lr
     fe8:	5f6d7261 	svcpl	0x006d7261
     fec:	68637261 	stmdavs	r3!, {r0, r5, r6, r9, ip, sp, lr}^
     ff0:	72610034 	rsbvc	r0, r1, #52, 0	; 0x34
     ff4:	72615f6d 	rsbvc	r5, r1, #436	; 0x1b4
     ff8:	00356863 	eorseq	r6, r5, r3, ror #16
     ffc:	726f6873 	rsbvc	r6, pc, #7536640	; 0x730000
    1000:	6e752074 	mrcvs	0, 3, r2, cr5, cr4, {3}
    1004:	6e676973 			; <UNDEFINED> instruction: 0x6e676973
    1008:	69206465 	stmdbvs	r0!, {r0, r2, r5, r6, sl, sp, lr}
    100c:	6100746e 	tstvs	r0, lr, ror #8
    1010:	615f6d72 	cmpvs	pc, r2, ror sp	; <UNPREDICTABLE>
    1014:	37686372 			; <UNDEFINED> instruction: 0x37686372
    1018:	6d726100 	ldfvse	f6, [r2, #-0]
    101c:	6372615f 	cmnvs	r2, #-1073741801	; 0xc0000017
    1020:	6c003868 	stcvs	8, cr3, [r0], {104}	; 0x68
    1024:	20676e6f 	rsbcs	r6, r7, pc, ror #28
    1028:	62756f64 	rsbsvs	r6, r5, #100, 30	; 0x190
    102c:	4200656c 	andmi	r6, r0, #108, 10	; 0x1b000000
    1030:	5f455341 	svcpl	0x00455341
    1034:	48435241 	stmdami	r3, {r0, r6, r9, ip, lr}^
    1038:	004b365f 	subeq	r3, fp, pc, asr r6
    103c:	47524154 			; <UNDEFINED> instruction: 0x47524154
    1040:	435f5445 	cmpmi	pc, #1157627904	; 0x45000000
    1044:	615f5550 	cmpvs	pc, r0, asr r5	; <UNPREDICTABLE>
    1048:	34396d72 	ldrtcc	r6, [r9], #-3442	; 0xfffff28e
    104c:	61007430 	tstvs	r0, r0, lsr r4
    1050:	615f6d72 	cmpvs	pc, r2, ror sp	; <UNPREDICTABLE>
    1054:	36686372 			; <UNDEFINED> instruction: 0x36686372
    1058:	6d726100 	ldfvse	f6, [r2, #-0]
    105c:	6e75745f 	mrcvs	4, 3, r7, cr5, cr15, {2}
    1060:	73785f65 	cmnvc	r8, #404	; 0x194
    1064:	656c6163 	strbvs	r6, [ip, #-355]!	; 0xfffffe9d
    1068:	52415400 	subpl	r5, r1, #0, 8
    106c:	5f544547 	svcpl	0x00544547
    1070:	5f555043 	svcpl	0x00555043
    1074:	376d7261 	strbcc	r7, [sp, -r1, ror #4]!
    1078:	00303035 	eorseq	r3, r0, r5, lsr r0
    107c:	696b616d 	stmdbvs	fp!, {r0, r2, r3, r5, r6, r8, sp, lr}^
    1080:	635f676e 	cmpvs	pc, #28835840	; 0x1b80000
    1084:	74736e6f 	ldrbtvc	r6, [r3], #-3695	; 0xfffff191
    1088:	6261745f 	rsbvs	r7, r1, #1593835520	; 0x5f000000
    108c:	7400656c 	strvc	r6, [r0], #-1388	; 0xfffffa94
    1090:	626d7568 	rsbvs	r7, sp, #104, 10	; 0x1a000000
    1094:	6c61635f 	stclvs	3, cr6, [r1], #-380	; 0xfffffe84
    1098:	69765f6c 	ldmdbvs	r6!, {r2, r3, r5, r6, r8, r9, sl, fp, ip, lr}^
    109c:	616c5f61 	cmnvs	ip, r1, ror #30
    10a0:	006c6562 	rsbeq	r6, ip, r2, ror #10
    10a4:	47524154 			; <UNDEFINED> instruction: 0x47524154
    10a8:	435f5445 	cmpmi	pc, #1157627904	; 0x45000000
    10ac:	615f5550 	cmpvs	pc, r0, asr r5	; <UNPREDICTABLE>
    10b0:	31376d72 	teqcc	r7, r2, ror sp
    10b4:	73690030 	cmnvc	r9, #48, 0	; 0x30
    10b8:	69625f61 	stmdbvs	r2!, {r0, r5, r6, r8, r9, sl, fp, ip, lr}^
    10bc:	72615f74 	rsbvc	r5, r1, #116, 30	; 0x1d0
    10c0:	6b36766d 	blvs	d9ea7c <_start-0x86a61584>
    10c4:	4f495f00 	svcmi	0x00495f00
    10c8:	7661735f 			; <UNDEFINED> instruction: 0x7661735f
    10cc:	61625f65 	cmnvs	r2, r5, ror #30
    10d0:	54006573 	strpl	r6, [r0], #-1395	; 0xfffffa8d
    10d4:	45475241 	strbmi	r5, [r7, #-577]	; 0xfffffdbf
    10d8:	50435f54 	subpl	r5, r3, r4, asr pc
    10dc:	6f635f55 	svcvs	0x00635f55
    10e0:	78657472 	stmdavc	r5!, {r1, r4, r5, r6, sl, ip, sp, lr}^
    10e4:	54003861 	strpl	r3, [r0], #-2145	; 0xfffff79f
    10e8:	45475241 	strbmi	r5, [r7, #-577]	; 0xfffffdbf
    10ec:	50435f54 	subpl	r5, r3, r4, asr pc
    10f0:	6f635f55 	svcvs	0x00635f55
    10f4:	78657472 	stmdavc	r5!, {r1, r4, r5, r6, sl, ip, sp, lr}^
    10f8:	5f003961 	svcpl	0x00003961
    10fc:	725f4f49 	subsvc	r4, pc, #292	; 0x124
    1100:	5f646165 	svcpl	0x00646165
    1104:	00646e65 	rsbeq	r6, r4, r5, ror #28
    1108:	5f4d5241 	svcpl	0x004d5241
    110c:	5f534350 	svcpl	0x00534350
    1110:	53435041 	movtpl	r5, #12353	; 0x3041
    1114:	4d524100 	ldfmie	f4, [r2, #-0]
    1118:	5343505f 	movtpl	r5, #12383	; 0x305f
    111c:	5054415f 	subspl	r4, r4, pc, asr r1
    1120:	73005343 	movwvc	r5, #835	; 0x343
    1124:	74726f68 	ldrbtvc	r6, [r2], #-3944	; 0xfffff098
    1128:	746e6920 	strbtvc	r6, [lr], #-2336	; 0xfffff6e0
    112c:	52415400 	subpl	r5, r1, #0, 8
    1130:	5f544547 	svcpl	0x00544547
    1134:	5f555043 	svcpl	0x00555043
    1138:	366d7261 	strbtcc	r7, [sp], -r1, ror #4
    113c:	54003030 	strpl	r3, [r0], #-48	; 0xffffffd0
    1140:	45475241 	strbmi	r5, [r7, #-577]	; 0xfffffdbf
    1144:	50435f54 	subpl	r5, r3, r4, asr pc
    1148:	72615f55 	rsbvc	r5, r1, #340	; 0x154
    114c:	3032376d 	eorscc	r3, r2, sp, ror #14
    1150:	41540074 	cmpmi	r4, r4, ror r0
    1154:	54454752 	strbpl	r4, [r5], #-1874	; 0xfffff8ae
    1158:	5550435f 	ldrbpl	r4, [r0, #-863]	; 0xfffffca1
    115c:	726f635f 	rsbvc	r6, pc, #2080374785	; 0x7c000001
    1160:	61786574 	cmnvs	r8, r4, ror r5
    1164:	63003735 	movwvs	r3, #1845	; 0x735
    1168:	6c706d6f 	ldclvs	13, cr6, [r0], #-444	; 0xfffffe44
    116c:	64207865 	strtvs	r7, [r0], #-2149	; 0xfffff79b
    1170:	6c62756f 	cfstr64vs	mvdx7, [r2], #-444	; 0xfffffe44
    1174:	41540065 	cmpmi	r4, r5, rrx
    1178:	54454752 	strbpl	r4, [r5], #-1874	; 0xfffff8ae
    117c:	5550435f 	ldrbpl	r4, [r0, #-863]	; 0xfffffca1
    1180:	726f635f 	rsbvc	r6, pc, #2080374785	; 0x7c000001
    1184:	61786574 	cmnvs	r8, r4, ror r5
    1188:	6f633337 	svcvs	0x00633337
    118c:	78657472 	stmdavc	r5!, {r1, r4, r5, r6, sl, ip, sp, lr}^
    1190:	00333561 	eorseq	r3, r3, r1, ror #10
    1194:	47524154 			; <UNDEFINED> instruction: 0x47524154
    1198:	435f5445 	cmpmi	pc, #1157627904	; 0x45000000
    119c:	635f5550 	cmpvs	pc, #80, 10	; 0x14000000
    11a0:	6574726f 	ldrbvs	r7, [r4, #-623]!	; 0xfffffd91
    11a4:	00376178 	eorseq	r6, r7, r8, ror r1
    11a8:	5f6d7261 	svcpl	0x006d7261
    11ac:	69006363 	stmdbvs	r0, {r0, r1, r5, r6, r8, r9, sp, lr}
    11b0:	625f6173 	subsvs	r6, pc, #-1073741796	; 0xc000001c
    11b4:	6d5f7469 	cfldrdvs	mvd7, [pc, #-420]	; 1018 <_start-0x877fefe8>
    11b8:	3265646f 	rsbcc	r6, r5, #1862270976	; 0x6f000000
    11bc:	73690036 	cmnvc	r9, #54, 0	; 0x36
    11c0:	69625f61 	stmdbvs	r2!, {r0, r5, r6, r8, r9, sl, fp, ip, lr}^
    11c4:	73785f74 	cmnvc	r8, #116, 30	; 0x1d0
    11c8:	656c6163 	strbvs	r6, [ip, #-355]!	; 0xfffffe9d
    11cc:	52415400 	subpl	r5, r1, #0, 8
    11d0:	5f544547 	svcpl	0x00544547
    11d4:	5f555043 	svcpl	0x00555043
    11d8:	6f727473 	svcvs	0x00727473
    11dc:	7261676e 	rsbvc	r6, r1, #28835840	; 0x1b80000
    11e0:	3031316d 	eorscc	r3, r1, sp, ror #2
    11e4:	41540030 	cmpmi	r4, r0, lsr r0
    11e8:	54454752 	strbpl	r4, [r5], #-1874	; 0xfffff8ae
    11ec:	5550435f 	ldrbpl	r4, [r0, #-863]	; 0xfffffca1
    11f0:	726f635f 	rsbvc	r6, pc, #2080374785	; 0x7c000001
    11f4:	6d786574 	cfldr64vs	mvdx6, [r8, #-464]!	; 0xfffffe30
    11f8:	756c7030 	strbvc	r7, [ip, #-48]!	; 0xffffffd0
    11fc:	645f0073 	ldrbvs	r0, [pc], #-115	; 1204 <_start-0x877fedfc>
    1200:	5f746e6f 	svcpl	0x00746e6f
    1204:	5f657375 	svcpl	0x00657375
    1208:	65657274 	strbvs	r7, [r5, #-628]!	; 0xfffffd8c
    120c:	7265685f 	rsbvc	r6, r5, #6225920	; 0x5f0000
    1210:	54005f65 	strpl	r5, [r0], #-3941	; 0xfffff09b
    1214:	45475241 	strbmi	r5, [r7, #-577]	; 0xfffffdbf
    1218:	50435f54 	subpl	r5, r3, r4, asr pc
    121c:	72615f55 	rsbvc	r5, r1, #340	; 0x154
    1220:	7430316d 	ldrtvc	r3, [r0], #-365	; 0xfffffe93
    1224:	00696d64 	rsbeq	r6, r9, r4, ror #26
    1228:	47524154 			; <UNDEFINED> instruction: 0x47524154
    122c:	435f5445 	cmpmi	pc, #1157627904	; 0x45000000
    1230:	635f5550 	cmpvs	pc, #80, 10	; 0x14000000
    1234:	6574726f 	ldrbvs	r7, [r4, #-623]!	; 0xfffffd91
    1238:	00356178 	eorseq	r6, r5, r8, ror r1
    123c:	65736162 	ldrbvs	r6, [r3, #-354]!	; 0xfffffe9e
    1240:	6372615f 	cmnvs	r2, #-1073741801	; 0xc0000017
    1244:	65746968 	ldrbvs	r6, [r4, #-2408]!	; 0xfffff698
    1248:	72757463 	rsbsvc	r7, r5, #1660944384	; 0x63000000
    124c:	72610065 	rsbvc	r0, r1, #101, 0	; 0x65
    1250:	72615f6d 	rsbvc	r5, r1, #436	; 0x1b4
    1254:	635f6863 	cmpvs	pc, #6488064	; 0x630000
    1258:	54006372 	strpl	r6, [r0], #-882	; 0xfffffc8e
    125c:	45475241 	strbmi	r5, [r7, #-577]	; 0xfffffdbf
    1260:	50435f54 	subpl	r5, r3, r4, asr pc
    1264:	6f635f55 	svcvs	0x00635f55
    1268:	78657472 	stmdavc	r5!, {r1, r4, r5, r6, sl, ip, sp, lr}^
    126c:	6d73316d 	ldfvse	f3, [r3, #-436]!	; 0xfffffe4c
    1270:	6d6c6c61 	stclvs	12, cr6, [ip, #-388]!	; 0xfffffe7c
    1274:	69746c75 	ldmdbvs	r4!, {r0, r2, r4, r5, r6, sl, fp, sp, lr}^
    1278:	00796c70 	rsbseq	r6, r9, r0, ror ip
    127c:	5f4f495f 	svcpl	0x004f495f
    1280:	65646977 	strbvs	r6, [r4, #-2423]!	; 0xfffff689
    1284:	7461645f 	strbtvc	r6, [r1], #-1119	; 0xfffffba1
    1288:	72610061 	rsbvc	r0, r1, #97, 0	; 0x61
    128c:	75635f6d 	strbvc	r5, [r3, #-3949]!	; 0xfffff093
    1290:	6e657272 	mcrvs	2, 3, r7, cr5, cr2, {3}
    1294:	63635f74 	cmnvs	r3, #116, 30	; 0x1d0
    1298:	6d726100 	ldfvse	f6, [r2, #-0]
    129c:	7261745f 	rsbvc	r7, r1, #1593835520	; 0x5f000000
    12a0:	5f746567 	svcpl	0x00746567
    12a4:	6e736e69 	cdpvs	14, 7, cr6, cr3, cr9, {3}
    12a8:	655f5f00 	ldrbvs	r5, [pc, #-3840]	; 3b0 <_start-0x877ffc50>
    12ac:	7269766e 	rsbvc	r7, r9, #115343360	; 0x6e00000
    12b0:	69006e6f 	stmdbvs	r0, {r0, r1, r2, r3, r5, r6, r9, sl, fp, sp, lr}
    12b4:	625f6173 	subsvs	r6, pc, #-1073741796	; 0xc000001c
    12b8:	635f7469 	cmpvs	pc, #1761607680	; 0x69000000
    12bc:	32336372 	eorscc	r6, r3, #-939524095	; 0xc8000001
    12c0:	4d524100 	ldfmie	f4, [r2, #-0]
    12c4:	004c505f 	subeq	r5, ip, pc, asr r0
    12c8:	5f617369 	svcpl	0x00617369
    12cc:	5f746962 	svcpl	0x00746962
    12d0:	76706676 			; <UNDEFINED> instruction: 0x76706676
    12d4:	73690033 	cmnvc	r9, #51, 0	; 0x33
    12d8:	69625f61 	stmdbvs	r2!, {r0, r5, r6, r8, r9, sl, fp, ip, lr}^
    12dc:	66765f74 	uhsub16vs	r5, r6, r4
    12e0:	00347670 	eorseq	r7, r4, r0, ror r6
    12e4:	45534142 	ldrbmi	r4, [r3, #-322]	; 0xfffffebe
    12e8:	4352415f 	cmpmi	r2, #-1073741801	; 0xc0000017
    12ec:	54365f48 	ldrtpl	r5, [r6], #-3912	; 0xfffff0b8
    12f0:	41420032 	cmpmi	r2, r2, lsr r0
    12f4:	415f4553 	cmpmi	pc, r3, asr r5	; <UNPREDICTABLE>
    12f8:	5f484352 	svcpl	0x00484352
    12fc:	4d5f4d38 	ldclmi	13, cr4, [pc, #-224]	; 1224 <_start-0x877feddc>
    1300:	004e4941 	subeq	r4, lr, r1, asr #18
    1304:	47524154 			; <UNDEFINED> instruction: 0x47524154
    1308:	435f5445 	cmpmi	pc, #1157627904	; 0x45000000
    130c:	615f5550 	cmpvs	pc, r0, asr r5	; <UNPREDICTABLE>
    1310:	74396d72 	ldrtvc	r6, [r9], #-3442	; 0xfffff28e
    1314:	00696d64 	rsbeq	r6, r9, r4, ror #26
    1318:	5f4d5241 	svcpl	0x004d5241
    131c:	69004c41 	stmdbvs	r0, {r0, r6, sl, fp, lr}
    1320:	625f6173 	subsvs	r6, pc, #-1073741796	; 0xc000001c
    1324:	6d5f7469 	cfldrdvs	mvd7, [pc, #-420]	; 1188 <_start-0x877fee78>
    1328:	3365646f 	cmncc	r5, #1862270976	; 0x6f000000
    132c:	41420032 	cmpmi	r2, r2, lsr r0
    1330:	415f4553 	cmpmi	pc, r3, asr r5	; <UNPREDICTABLE>
    1334:	5f484352 	svcpl	0x00484352
    1338:	61004d37 	tstvs	r0, r7, lsr sp
    133c:	745f6d72 	ldrbvc	r6, [pc], #-3442	; 1344 <_start-0x877fecbc>
    1340:	65677261 	strbvs	r7, [r7, #-609]!	; 0xfffffd9f
    1344:	616c5f74 	smcvs	50676	; 0xc5f4
    1348:	006c6562 	rsbeq	r6, ip, r2, ror #10
    134c:	47524154 			; <UNDEFINED> instruction: 0x47524154
    1350:	435f5445 	cmpmi	pc, #1157627904	; 0x45000000
    1354:	735f5550 	cmpvc	pc, #80, 10	; 0x14000000
    1358:	6e6f7274 	mcrvs	2, 3, r7, cr15, cr4, {3}
    135c:	6d726167 	ldfvse	f6, [r2, #-412]!	; 0xfffffe64
    1360:	30313131 	eorscc	r3, r1, r1, lsr r1
    1364:	52415400 	subpl	r5, r1, #0, 8
    1368:	5f544547 	svcpl	0x00544547
    136c:	5f555043 	svcpl	0x00555043
    1370:	376d7261 	strbcc	r7, [sp, -r1, ror #4]!
    1374:	54003032 	strpl	r3, [r0], #-50	; 0xffffffce
    1378:	45475241 	strbmi	r5, [r7, #-577]	; 0xfffffdbf
    137c:	50435f54 	subpl	r5, r3, r4, asr pc
    1380:	6f635f55 	svcvs	0x00635f55
    1384:	78657472 	stmdavc	r5!, {r1, r4, r5, r6, sl, ip, sp, lr}^
    1388:	54003472 	strpl	r3, [r0], #-1138	; 0xfffffb8e
    138c:	45475241 	strbmi	r5, [r7, #-577]	; 0xfffffdbf
    1390:	50435f54 	subpl	r5, r3, r4, asr pc
    1394:	6f635f55 	svcvs	0x00635f55
    1398:	78657472 	stmdavc	r5!, {r1, r4, r5, r6, sl, ip, sp, lr}^
    139c:	54003772 	strpl	r3, [r0], #-1906	; 0xfffff88e
    13a0:	45475241 	strbmi	r5, [r7, #-577]	; 0xfffffdbf
    13a4:	50435f54 	subpl	r5, r3, r4, asr pc
    13a8:	6f635f55 	svcvs	0x00635f55
    13ac:	78657472 	stmdavc	r5!, {r1, r4, r5, r6, sl, ip, sp, lr}^
    13b0:	5f003872 	svcpl	0x00003872
    13b4:	6b636f6c 	blvs	18dd16c <_start-0x85f22e94>
    13b8:	61736900 	cmnvs	r3, r0, lsl #18
    13bc:	7469625f 	strbtvc	r6, [r9], #-607	; 0xfffffda1
    13c0:	61706c5f 	cmnvs	r0, pc, asr ip
    13c4:	495f0065 	ldmdbmi	pc, {r0, r2, r5, r6}^	; <UNPREDICTABLE>
    13c8:	6f635f4f 	svcvs	0x00635f4f
    13cc:	76636564 	strbtvc	r6, [r3], -r4, ror #10
    13d0:	41540074 	cmpmi	r4, r4, ror r0
    13d4:	54454752 	strbpl	r4, [r5], #-1874	; 0xfffff8ae
    13d8:	5550435f 	ldrbpl	r4, [r0, #-863]	; 0xfffffca1
    13dc:	7274735f 	rsbsvc	r7, r4, #2080374785	; 0x7c000001
    13e0:	61676e6f 	cmnvs	r7, pc, ror #28
    13e4:	31316d72 	teqcc	r1, r2, ror sp
    13e8:	6f5f0030 	svcvs	0x005f0030
    13ec:	6f5f646c 	svcvs	0x005f646c
    13f0:	65736666 	ldrbvs	r6, [r3, #-1638]!	; 0xfffff99a
    13f4:	73690074 	cmnvc	r9, #116, 0	; 0x74
    13f8:	69625f61 	stmdbvs	r2!, {r0, r5, r6, r8, r9, sl, fp, ip, lr}^
    13fc:	75715f74 	ldrbvc	r5, [r1, #-3956]!	; 0xfffff08c
    1400:	5f6b7269 	svcpl	0x006b7269
    1404:	766d7261 	strbtvc	r7, [sp], -r1, ror #4
    1408:	007a6b36 	rsbseq	r6, sl, r6, lsr fp
    140c:	5f617369 	svcpl	0x00617369
    1410:	5f746962 	svcpl	0x00746962
    1414:	6d746f6e 	ldclvs	15, cr6, [r4, #-440]!	; 0xfffffe48
    1418:	4f495f00 	svcmi	0x00495f00
    141c:	4c49465f 	mcrrmi	6, 5, r4, r9, cr15
    1420:	73690045 	cmnvc	r9, #69, 0	; 0x45
    1424:	69625f61 	stmdbvs	r2!, {r0, r5, r6, r8, r9, sl, fp, ip, lr}^
    1428:	72615f74 	rsbvc	r5, r1, #116, 30	; 0x1d0
    142c:	0034766d 	eorseq	r7, r4, sp, ror #12
    1430:	5f617369 	svcpl	0x00617369
    1434:	5f746962 	svcpl	0x00746962
    1438:	766d7261 	strbtvc	r7, [sp], -r1, ror #4
    143c:	73690035 	cmnvc	r9, #53, 0	; 0x35
    1440:	69625f61 	stmdbvs	r2!, {r0, r5, r6, r8, r9, sl, fp, ip, lr}^
    1444:	72615f74 	rsbvc	r5, r1, #116, 30	; 0x1d0
    1448:	0036766d 	eorseq	r7, r6, sp, ror #12
    144c:	5f617369 	svcpl	0x00617369
    1450:	5f746962 	svcpl	0x00746962
    1454:	766d7261 	strbtvc	r7, [sp], -r1, ror #4
    1458:	73690037 	cmnvc	r9, #55, 0	; 0x37
    145c:	69625f61 	stmdbvs	r2!, {r0, r5, r6, r8, r9, sl, fp, ip, lr}^
    1460:	72615f74 	rsbvc	r5, r1, #116, 30	; 0x1d0
    1464:	0038766d 	eorseq	r7, r8, sp, ror #12
    1468:	6e6f645f 	mcrvs	4, 3, r6, cr15, cr15, {2}
    146c:	73755f74 	cmnvc	r5, #116, 30	; 0x1d0
    1470:	74725f65 	ldrbtvc	r5, [r2], #-3941	; 0xfffff09b
    1474:	65685f78 	strbvs	r5, [r8, #-3960]!	; 0xfffff088
    1478:	005f6572 	subseq	r6, pc, r2, ror r5	; <UNPREDICTABLE>
    147c:	47524154 			; <UNDEFINED> instruction: 0x47524154
    1480:	435f5445 	cmpmi	pc, #1157627904	; 0x45000000
    1484:	615f5550 	cmpvs	pc, r0, asr r5	; <UNPREDICTABLE>
    1488:	31316d72 	teqcc	r1, r2, ror sp
    148c:	32743635 	rsbscc	r3, r4, #55574528	; 0x3500000
    1490:	72610073 	rsbvc	r0, r1, #115, 0	; 0x73
    1494:	75745f6d 	ldrbvc	r5, [r4, #-3949]!	; 0xfffff093
    1498:	6100656e 	tstvs	r0, lr, ror #10
    149c:	635f6d72 	cmpvs	pc, #7296	; 0x1c80
    14a0:	695f7070 	ldmdbvs	pc, {r4, r5, r6, ip, sp, lr}^	; <UNPREDICTABLE>
    14a4:	7265746e 	rsbvc	r7, r5, #1845493760	; 0x6e000000
    14a8:	6b726f77 	blvs	1c9d28c <_start-0x85b62d74>
    14ac:	736e7500 	cmnvc	lr, #0, 10
    14b0:	656e6769 	strbvs	r6, [lr, #-1897]!	; 0xfffff897
    14b4:	68632064 	stmdavs	r3!, {r2, r5, r6, sp}^
    14b8:	54007261 	strpl	r7, [r0], #-609	; 0xfffffd9f
    14bc:	45475241 	strbmi	r5, [r7, #-577]	; 0xfffffdbf
    14c0:	50435f54 	subpl	r5, r3, r4, asr pc
    14c4:	72615f55 	rsbvc	r5, r1, #340	; 0x154
    14c8:	3032396d 	eorscc	r3, r2, sp, ror #18
    14cc:	5f5f0074 	svcpl	0x005f0074
    14d0:	616e7a74 	smcvs	59300	; 0xe7a4
    14d4:	5400656d 	strpl	r6, [r0], #-1389	; 0xfffffa93
    14d8:	45475241 	strbmi	r5, [r7, #-577]	; 0xfffffdbf
    14dc:	50435f54 	subpl	r5, r3, r4, asr pc
    14e0:	61665f55 	cmnvs	r6, r5, asr pc
    14e4:	00363235 	eorseq	r3, r6, r5, lsr r2
    14e8:	5f6d7261 	svcpl	0x006d7261
    14ec:	68637261 	stmdavs	r3!, {r0, r5, r6, r9, ip, sp, lr}^
    14f0:	7568745f 	strbvc	r7, [r8, #-1119]!	; 0xfffffba1
    14f4:	685f626d 	ldmdavs	pc, {r0, r2, r3, r5, r6, r9, sp, lr}^	; <UNPREDICTABLE>
    14f8:	76696477 			; <UNDEFINED> instruction: 0x76696477
    14fc:	4f495f00 	svcmi	0x00495f00
    1500:	6972775f 	ldmdbvs	r2!, {r0, r1, r2, r3, r4, r6, r8, r9, sl, ip, sp, lr}^
    1504:	705f6574 	subsvc	r6, pc, r4, ror r5	; <UNPREDICTABLE>
    1508:	68007274 	stmdavs	r0, {r2, r4, r5, r6, r9, ip, sp, lr}
    150c:	5f626174 	svcpl	0x00626174
    1510:	705f7165 	subsvc	r7, pc, r5, ror #2
    1514:	746e696f 	strbtvc	r6, [lr], #-2415	; 0xfffff691
    1518:	54007265 	strpl	r7, [r0], #-613	; 0xfffffd9b
    151c:	45475241 	strbmi	r5, [r7, #-577]	; 0xfffffdbf
    1520:	50435f54 	subpl	r5, r3, r4, asr pc
    1524:	72615f55 	rsbvc	r5, r1, #340	; 0x154
    1528:	0030366d 	eorseq	r3, r0, sp, ror #12
    152c:	5f6d7261 	svcpl	0x006d7261
    1530:	5f636970 	svcpl	0x00636970
    1534:	69676572 	stmdbvs	r7!, {r1, r4, r5, r6, r8, sl, sp, lr}^
    1538:	72657473 	rsbvc	r7, r5, #1929379840	; 0x73000000
    153c:	52415400 	subpl	r5, r1, #0, 8
    1540:	5f544547 	svcpl	0x00544547
    1544:	5f555043 	svcpl	0x00555043
    1548:	74726f63 	ldrbtvc	r6, [r2], #-3939	; 0xfffff09d
    154c:	306d7865 	rsbcc	r7, sp, r5, ror #16
    1550:	6c616d73 	stclvs	13, cr6, [r1], #-460	; 0xfffffe34
    1554:	6c756d6c 	ldclvs	13, cr6, [r5], #-432	; 0xfffffe50
    1558:	6c706974 			; <UNDEFINED> instruction: 0x6c706974
    155c:	41540079 	cmpmi	r4, r9, ror r0
    1560:	54454752 	strbpl	r4, [r5], #-1874	; 0xfffff8ae
    1564:	5550435f 	ldrbpl	r4, [r0, #-863]	; 0xfffffca1
    1568:	6d72615f 	ldfvse	f6, [r2, #-380]!	; 0xfffffe84
    156c:	65363639 	ldrvs	r3, [r6, #-1593]!	; 0xfffff9c7
    1570:	41540073 	cmpmi	r4, r3, ror r0
    1574:	54454752 	strbpl	r4, [r5], #-1874	; 0xfffff8ae
    1578:	5550435f 	ldrbpl	r4, [r0, #-863]	; 0xfffffca1
    157c:	63706d5f 	cmnvs	r0, #6080	; 0x17c0
    1580:	6e65726f 	cdpvs	2, 6, cr7, cr5, cr15, {3}
    1584:	7066766f 	rsbvc	r7, r6, pc, ror #12
    1588:	61736900 	cmnvs	r3, r0, lsl #18
    158c:	7469625f 	strbtvc	r6, [r9], #-607	; 0xfffffda1
    1590:	6975715f 	ldmdbvs	r5!, {r0, r1, r2, r3, r4, r6, r8, ip, sp, lr}^
    1594:	635f6b72 	cmpvs	pc, #116736	; 0x1c800
    1598:	6c5f336d 	mrrcvs	3, 6, r3, pc, cr13	; <UNPREDICTABLE>
    159c:	00647264 	rsbeq	r7, r4, r4, ror #4
    15a0:	47524154 			; <UNDEFINED> instruction: 0x47524154
    15a4:	435f5445 	cmpmi	pc, #1157627904	; 0x45000000
    15a8:	615f5550 	cmpvs	pc, r0, asr r5	; <UNPREDICTABLE>
    15ac:	30376d72 	eorscc	r6, r7, r2, ror sp
    15b0:	41006930 	tstmi	r0, r0, lsr r9
    15b4:	435f4d52 	cmpmi	pc, #5248	; 0x1480
    15b8:	72610043 	rsbvc	r0, r1, #67, 0	; 0x43
    15bc:	72615f6d 	rsbvc	r5, r1, #436	; 0x1b4
    15c0:	5f386863 	svcpl	0x00386863
    15c4:	73690032 	cmnvc	r9, #50, 0	; 0x32
    15c8:	69625f61 	stmdbvs	r2!, {r0, r5, r6, r8, r9, sl, fp, ip, lr}^
    15cc:	70665f74 	rsbvc	r5, r6, r4, ror pc
    15d0:	61003576 	tstvs	r0, r6, ror r5
    15d4:	6c5f6d72 	mrrcvs	13, 7, r6, pc, cr2	; <UNPREDICTABLE>
    15d8:	63735f64 	cmnvs	r3, #100, 30	; 0x190
    15dc:	00646568 	rsbeq	r6, r4, r8, ror #10
    15e0:	47524154 			; <UNDEFINED> instruction: 0x47524154
    15e4:	435f5445 	cmpmi	pc, #1157627904	; 0x45000000
    15e8:	665f5550 			; <UNDEFINED> instruction: 0x665f5550
    15ec:	3236706d 	eorscc	r7, r6, #109, 0	; 0x6d
    15f0:	52410036 	subpl	r0, r1, #54, 0	; 0x36
    15f4:	53435f4d 	movtpl	r5, #16205	; 0x3f4d
    15f8:	6d726100 	ldfvse	f6, [r2, #-0]
    15fc:	3170665f 	cmncc	r0, pc, asr r6
    1600:	6e695f36 	mcrvs	15, 3, r5, cr9, cr6, {1}
    1604:	5f007473 	svcpl	0x00007473
    1608:	66666f5f 	uqsaxvs	r6, r6, pc	; <UNPREDICTABLE>
    160c:	6100745f 	tstvs	r0, pc, asr r4
    1610:	625f6d72 	subsvs	r6, pc, #7296	; 0x1c80
    1614:	5f657361 	svcpl	0x00657361
    1618:	68637261 	stmdavs	r3!, {r0, r5, r6, r9, ip, sp, lr}^
    161c:	52415400 	subpl	r5, r1, #0, 8
    1620:	5f544547 	svcpl	0x00544547
    1624:	5f555043 	svcpl	0x00555043
    1628:	376d7261 	strbcc	r7, [sp, -r1, ror #4]!
    162c:	4154006d 	cmpmi	r4, sp, rrx
    1630:	54454752 	strbpl	r4, [r5], #-1874	; 0xfffff8ae
    1634:	5550435f 	ldrbpl	r4, [r0, #-863]	; 0xfffffca1
    1638:	6d72615f 	ldfvse	f6, [r2, #-380]!	; 0xfffffe84
    163c:	5f003037 	svcpl	0x00003037
    1640:	5f737973 	svcpl	0x00737973
    1644:	6c727265 	lfmvs	f7, 2, [r2], #-404	; 0xfffffe6c
    1648:	00747369 	rsbseq	r7, r4, r9, ror #6
    164c:	47524154 			; <UNDEFINED> instruction: 0x47524154
    1650:	435f5445 	cmpmi	pc, #1157627904	; 0x45000000
    1654:	615f5550 	cmpvs	pc, r0, asr r5	; <UNPREDICTABLE>
    1658:	35326d72 	ldrcc	r6, [r2, #-3442]!	; 0xfffff28e
    165c:	72610030 	rsbvc	r0, r1, #48, 0	; 0x30
    1660:	72615f6d 	rsbvc	r5, r1, #436	; 0x1b4
    1664:	65376863 	ldrvs	r6, [r7, #-2147]!	; 0xfffff79d
    1668:	4154006d 	cmpmi	r4, sp, rrx
    166c:	54454752 	strbpl	r4, [r5], #-1874	; 0xfffff8ae
    1670:	5550435f 	ldrbpl	r4, [r0, #-863]	; 0xfffffca1
    1674:	726f635f 	rsbvc	r6, pc, #2080374785	; 0x7c000001
    1678:	61786574 	cmnvs	r8, r4, ror r5
    167c:	61003237 	tstvs	r0, r7, lsr r2
    1680:	705f6d72 	subsvc	r6, pc, r2, ror sp	; <UNPREDICTABLE>
    1684:	645f7363 	ldrbvs	r7, [pc], #-867	; 168c <_start-0x877fe974>
    1688:	75616665 	strbvc	r6, [r1, #-1637]!	; 0xfffff99b
    168c:	4100746c 	tstmi	r0, ip, ror #8
    1690:	505f4d52 	subspl	r4, pc, r2, asr sp	; <UNPREDICTABLE>
    1694:	415f5343 	cmpmi	pc, r3, asr #6
    1698:	53435041 	movtpl	r5, #12353	; 0x3041
    169c:	434f4c5f 	movtmi	r4, #64607	; 0xfc5f
    16a0:	54004c41 	strpl	r4, [r0], #-3137	; 0xfffff3bf
    16a4:	45475241 	strbmi	r5, [r7, #-577]	; 0xfffffdbf
    16a8:	50435f54 	subpl	r5, r3, r4, asr pc
    16ac:	6f635f55 	svcvs	0x00635f55
    16b0:	78657472 	stmdavc	r5!, {r1, r4, r5, r6, sl, ip, sp, lr}^
    16b4:	00353761 	eorseq	r3, r5, r1, ror #14
    16b8:	47524154 			; <UNDEFINED> instruction: 0x47524154
    16bc:	435f5445 	cmpmi	pc, #1157627904	; 0x45000000
    16c0:	735f5550 	cmpvc	pc, #80, 10	; 0x14000000
    16c4:	6e6f7274 	mcrvs	2, 3, r7, cr15, cr4, {3}
    16c8:	6d726167 	ldfvse	f6, [r2, #-412]!	; 0xfffffe64
    16cc:	6d726100 	ldfvse	f6, [r2, #-0]
    16d0:	6372615f 	cmnvs	r2, #-1073741801	; 0xc0000017
    16d4:	68745f68 	ldmdavs	r4!, {r3, r5, r6, r8, r9, sl, fp, ip, lr}^
    16d8:	31626d75 	smccc	9941	; 0x26d5
    16dc:	6d726100 	ldfvse	f6, [r2, #-0]
    16e0:	6372615f 	cmnvs	r2, #-1073741801	; 0xc0000017
    16e4:	68745f68 	ldmdavs	r4!, {r3, r5, r6, r8, r9, sl, fp, ip, lr}^
    16e8:	32626d75 	rsbcc	r6, r2, #7488	; 0x1d40
    16ec:	52415400 	subpl	r5, r1, #0, 8
    16f0:	5f544547 	svcpl	0x00544547
    16f4:	5f555043 	svcpl	0x00555043
    16f8:	6d6d7769 	stclvs	7, cr7, [sp, #-420]!	; 0xfffffe5c
    16fc:	5f007478 	svcpl	0x00007478
    1700:	69616863 	stmdbvs	r1!, {r0, r1, r5, r6, fp, sp, lr}^
    1704:	4154006e 	cmpmi	r4, lr, rrx
    1708:	54454752 	strbpl	r4, [r5], #-1874	; 0xfffff8ae
    170c:	5550435f 	ldrbpl	r4, [r0, #-863]	; 0xfffffca1
    1710:	6d72615f 	ldfvse	f6, [r2, #-380]!	; 0xfffffe84
    1714:	74323239 	ldrtvc	r3, [r2], #-569	; 0xfffffdc7
    1718:	52415400 	subpl	r5, r1, #0, 8
    171c:	5f544547 	svcpl	0x00544547
    1720:	5f555043 	svcpl	0x00555043
    1724:	376d7261 	strbcc	r7, [sp, -r1, ror #4]!
    1728:	5f5f0064 	svcpl	0x005f0064
    172c:	6c796164 	ldfvse	f6, [r9], #-400	; 0xfffffe70
    1730:	74686769 	strbtvc	r6, [r8], #-1897	; 0xfffff897
    1734:	61736900 	cmnvs	r3, r0, lsl #18
    1738:	7469625f 	strbtvc	r6, [r9], #-607	; 0xfffffda1
    173c:	00706d5f 	rsbseq	r6, r0, pc, asr sp
    1740:	666f5f5f 	uqsaxvs	r5, pc, pc	; <UNPREDICTABLE>
    1744:	5f343666 	svcpl	0x00343666
    1748:	755f0074 	ldrbvc	r0, [pc, #-116]	; 16dc <_start-0x877fe924>
    174c:	6573756e 	ldrbvs	r7, [r3, #-1390]!	; 0xfffffa92
    1750:	5f003264 	svcpl	0x00003264
    1754:	625f4f49 	subsvs	r4, pc, #292	; 0x124
    1758:	625f6675 	subsvs	r6, pc, #122683392	; 0x7500000
    175c:	00657361 	rsbeq	r7, r5, r1, ror #6
    1760:	5f6d7261 	svcpl	0x006d7261
    1764:	68637261 	stmdavs	r3!, {r0, r5, r6, r9, ip, sp, lr}^
    1768:	00315f38 	eorseq	r5, r1, r8, lsr pc

Disassembly of section .debug_loc:

00000000 <.debug_loc>:
	...
   8:	004c0000 	subeq	r0, ip, r0
   c:	00060000 	andeq	r0, r6, r0
  10:	51049350 	tstpl	r4, r0, asr r3
  14:	004c0493 	umaaleq	r0, ip, r3, r4
  18:	01400000 	mrseq	r0, (UNDEF: 64)
  1c:	00060000 	andeq	r0, r6, r0
  20:	00f503f3 	ldrshteq	r0, [r5], #51	; 0x33
  24:	01409f25 	cmpeq	r0, r5, lsr #30
  28:	01480000 	mrseq	r0, (UNDEF: 72)
  2c:	00060000 	andeq	r0, r6, r0
  30:	51049350 	tstpl	r4, r0, asr r3
  34:	00000493 	muleq	r0, r3, r4
	...
  48:	00000058 	andeq	r0, r0, r8, asr r0
  4c:	93520006 	cmpls	r2, #6, 0
  50:	04935304 	ldreq	r5, [r3], #772	; 0x304
  54:	00000058 	andeq	r0, r0, r8, asr r0
  58:	00000140 	andeq	r0, r0, r0, asr #2
  5c:	03f30006 	mvnseq	r0, #6, 0
  60:	9f2502f5 	svcls	0x002502f5
  64:	00000140 	andeq	r0, r0, r0, asr #2
  68:	00000148 	andeq	r0, r0, r8, asr #2
  6c:	93520006 	cmpls	r2, #6, 0
  70:	04935304 	ldreq	r5, [r3], #772	; 0x304
	...
  7c:	00000002 	andeq	r0, r0, r2
	...
  88:	00900000 	addseq	r0, r0, r0
  8c:	000a0000 	andeq	r0, sl, r0
  90:	0000089e 	muleq	r0, lr, r8
  94:	00000000 	andeq	r0, r0, r0
  98:	00900000 	addseq	r0, r0, r0
  9c:	012c0000 			; <UNDEFINED> instruction: 0x012c0000
  a0:	00050000 	andeq	r0, r5, r0
  a4:	93029090 	movwls	r9, #8336	; 0x2090
  a8:	00012c08 	andeq	r2, r1, r8, lsl #24
  ac:	00013400 	andeq	r3, r1, r0, lsl #8
  b0:	9e000a00 	vmlals.f32	s0, s0, s0
  b4:	00000008 	andeq	r0, r0, r8
  b8:	00000000 	andeq	r0, r0, r0
  bc:	00013400 	andeq	r3, r1, r0, lsl #8
  c0:	00014000 	andeq	r4, r1, r0
  c4:	90000500 	andls	r0, r0, r0, lsl #10
  c8:	08930290 	ldmeq	r3, {r4, r7, r9}
  cc:	00000140 	andeq	r0, r0, r0, asr #2
  d0:	00000148 	andeq	r0, r0, r8, asr #2
  d4:	089e000a 	ldmeq	lr, {r1, r3}
	...
  f0:	00140000 	andseq	r0, r4, r0
  f4:	00bc0000 	adcseq	r0, ip, r0
  f8:	00060000 	andeq	r0, r6, r0
  fc:	57049356 	smlsdpl	r4, r6, r3, r9
 100:	00d40493 	smullseq	r0, r4, r3, r4
 104:	00e40000 	rsceq	r0, r4, r0
 108:	00060000 	andeq	r0, r6, r0
 10c:	57049356 	smlsdpl	r4, r6, r3, r9
 110:	00e40493 	smlaleq	r0, r4, r3, r4
 114:	01000000 	mrseq	r0, (UNDEF: 0)
 118:	00050000 	andeq	r0, r5, r0
 11c:	93029190 	movwls	r9, #8592	; 0x2190
 120:	00010008 	andeq	r0, r1, r8
 124:	00013800 	andeq	r3, r1, r0, lsl #16
 128:	56000600 	strpl	r0, [r0], -r0, lsl #12
 12c:	93570493 	cmpls	r7, #-1828716544	; 0x93000000
 130:	00014004 	andeq	r4, r1, r4
 134:	00014800 	andeq	r4, r1, r0, lsl #16
 138:	56000600 	strpl	r0, [r0], -r0, lsl #12
 13c:	93570493 	cmpls	r7, #-1828716544	; 0x93000000
 140:	00000004 	andeq	r0, r0, r4
	...
 14c:	14000000 	strne	r0, [r0], #-0
 150:	9c000000 	stcls	0, cr0, [r0], {-0}
 154:	06000000 	streq	r0, [r0], -r0
 158:	04935200 	ldreq	r5, [r3], #512	; 0x200
 15c:	a8049353 	stmdage	r4, {r0, r1, r4, r6, r8, r9, ip, pc}
 160:	f0000000 			; <UNDEFINED> instruction: 0xf0000000
 164:	06000000 	streq	r0, [r0], -r0
 168:	04935200 	ldreq	r5, [r3], #512	; 0x200
 16c:	2c049353 	stccs	3, cr9, [r4], {83}	; 0x53
 170:	48000001 	stmdami	r0, {r0}
 174:	06000001 	streq	r0, [r0], -r1
 178:	04935200 	ldreq	r5, [r3], #512	; 0x200
 17c:	00049353 	andeq	r9, r4, r3, asr r3
	...
 188:	00002c00 	andeq	r2, r0, r0, lsl #24
 18c:	00003400 	andeq	r3, r0, r0, lsl #8
 190:	7c000300 	stcvc	3, cr0, [r0], {-0}
 194:	00009f20 	andeq	r9, r0, r0, lsr #30
	...
 1a0:	0000003c 	andeq	r0, r0, ip, lsr r0
 1a4:	00000040 	andeq	r0, r0, r0, asr #32
 1a8:	005c0001 	subseq	r0, ip, r1
 1ac:	00000000 	andeq	r0, r0, r0
 1b0:	01000000 	mrseq	r0, (UNDEF: 0)
 1b4:	00000101 	andeq	r0, r0, r1, lsl #2
 1b8:	a8000000 	stmdage	r0, {}	; <UNPREDICTABLE>
 1bc:	d4000000 	strle	r0, [r0], #-0
 1c0:	01000000 	mrseq	r0, (UNDEF: 0)
 1c4:	00d45400 	sbcseq	r5, r4, r0, lsl #8
 1c8:	00d80000 	sbcseq	r0, r8, r0
 1cc:	00030000 	andeq	r0, r3, r0
 1d0:	d89f7f74 	ldmle	pc, {r2, r4, r5, r6, r8, r9, sl, fp, ip, sp, lr}	; <UNPREDICTABLE>
 1d4:	1c000000 	stcne	0, cr0, [r0], {-0}
 1d8:	01000001 	tsteq	r0, r1
 1dc:	01345400 	teqeq	r4, r0, lsl #8
 1e0:	01400000 	mrseq	r0, (UNDEF: 64)
 1e4:	00010000 	andeq	r0, r1, r0
 1e8:	00000054 	andeq	r0, r0, r4, asr r0
	...
 1f4:	00004000 	andeq	r4, r0, r0
 1f8:	00011c00 	andeq	r1, r1, r0, lsl #24
 1fc:	5c000100 	stfpls	f0, [r0], {-0}
 200:	0000012c 	andeq	r0, r0, ip, lsr #2
 204:	00000140 	andeq	r0, r0, r0, asr #2
 208:	005c0001 	subseq	r0, ip, r1
 20c:	00000000 	andeq	r0, r0, r0
 210:	Address 0x0000000000000210 is out of bounds.

